(lp0
S'_BOOK 1'
p1
aS'_GEOGRAPHICAL-REGION 2'
p2
aS'_PERSON 3'
p3
aS'_BOOK 3'
p4
aS'_CREDITCARDACCOUNT 3'
p5
aS'_GEOGRAPHICAL-REGION 4'
p6
aS'_HIGHER-EDUCATIONAL-ORGANIZATION 6'
p7
aS'_BOOK 7'
p8
aS'_FOOD 8'
p9
aS'_CITY 9'
p10
aS'_STATE 9'
p11
aS'PatientTransport_PatientGpsPosition 10'
p12
aS'UpdatePatientMedicalRecords_Treatment 10'
p13
aS'UpdatePatientMedicalRecords_PhysicianAuthorization 10'
p14
aS'UpdatePatientMedicalRecords_PhysicianPassword 10'
p15
aS'UpdatePatientMedicalRecords_PhysicianID 10'
p16
aS'UpdatePatientMedicalRecords_PatientHealthInsuranceNumber 10'
p17
aS'UpdatePatientMedicalRecords_Diagnosis 10'
p18
aS'UpdatePatientMedicalRecords_UsedDrugs 10'
p19
aS'UpdatePatientMedicalRecords_TreatmentDateTime 10'
p20
aS'_HOSPITAL 11'
p21
aS'_RECOMMENDEDPRICE 12'
p22
aS'_HOTEL 12'
p23
aS'_COUNTRY 13'
p24
aS'_ADDRESS1 14'
p25
aS'_ADDRESS2 14'
p26
aS'_CITY1 14'
p27
aS'_CITY2 14'
p28
aS'_STATE1 14'
p29
aS'_STATE2 14'
p30
aS'_HOSPITAL 15'
p31
aS'_ACADEMIC 16'
p32
aS'_ACADEMIC-ITEM-NUMBER 17'
p33
aS'CheckPersonnelAvailability_TreatmentRecomendation 18'
p34
aS'CheckHospitalAvailability_TreatmentRecomendation 18'
p35
aS'CheckEquipmentAvailability_TreatmentDate 18'
p36
aS'CheckEquipmentAvailability_TreatmentRecomendation 18'
p37
aS'_LICENSEKEY 19'
p38
aS'_ADDRESS 19'
p39
aS'_ISBN 21'
p40
aS'_FOOD 22'
p41
aS'_GEOGRAPHICAL-REGION 23'
p42
aS'_HOSPITAL 24'
p43
aS'_USCITY1 25'
p44
aS'_USCITY2 25'
p45
aS'_USSTATECODE1 25'
p46
aS'_USSTATECODE2 25'
p47
aS'_HOSPITAL 26'
p48
aS'_UNIVERSITY 27'
p49
aS'_HOSPITAL 28'
p50
aS'_CITY 29'
p51
aS'_STATE 29'
p52
aS'_COUNTRY 29'
p53
aS'_RETAILSTORESTORE 30'
p54
aS'_COUNTRY 31'
p55
aS'_BEVERAGE 32'
p56
aS'_CITY 33'
p57
aS'_CITY 34'
p58
aS'_COUNTRY 34'
p59
aS'_USERID 35'
p60
aS'_CITY 35'
p61
aS'CheckHospitalAvailability_TreatmentRecomendation 36'
p62
aS'CheckRoomAvailability_TreatmentDate 36'
p63
aS'CheckRoomAvailability_TreatmentRecomendation 36'
p64
aS'_USERID 37'
p65
aS'_START-LATITUDE 37'
p66
aS'_START-LONGITUDE 37'
p67
aS'_END-LATITUDE 37'
p68
aS'_END-LONGITUDE 37'
p69
aS'_IMAGE-WIDTH 37'
p70
aS'_IMAGE-HEIGHT 37'
p71
aS'_LANGUAGE 37'
p72
aS'_CITY 39'
p73
aS'_COUNTRY 39'
p74
aS'_DURATION 39'
p75
aS'_SHOPPINGMALL 40'
p76
aS'_UNIVERSITY 41'
p77
aS'BookMedicalFlight_FlightNumber 42'
p78
aS'BookMedicalFlight_Account 42'
p79
aS'ProvideMedicalFlightInformation_DesiredArrivalAirport 42'
p80
aS'ProvideMedicalFlightInformation_Diagnosis 42'
p81
aS'ProvideMedicalFlightInformation_DesiredTreatment 42'
p82
aS'ProvideMedicalFlightInformation_FlightCategory 42'
p83
aS'ProvideMedicalFlightInformation_DesiredDepartureDateTime 42'
p84
aS'ProvideMedicalFlightInformation_DesiredDepartureAirport 42'
p85
aS'_ADDRESS 44'
p86
aS'_CITY 44'
p87
aS'_STATE 44'
p88
aS'_COUNTRY 44'
p89
aS'_COUNTY 44'
p90
aS'_ZIPCODE 44'
p91
aS'_DISTRICT 44'
p92
aS'_LICENSEKEY 45'
p93
aS'_ADDRESS 45'
p94
aS'_CITY 45'
p95
aS'_STATE 45'
p96
aS'_COUNTRY 45'
p97
aS'CheckCostAndHealingPlan_PatientHealthInsuranceNumber 46'
p98
aS'CheckCostAndHealingPlan_CostAndHealingPlan 46'
p99
aS'ProvideMedicalTransportInformation_DesiredTransportVehicle 47'
p100
aS'BookMedicalTransport_Account 47'
p101
aS'BookMedicalTransport_TransportNumber 47'
p102
aS'_USERID 48'
p103
aS'_LATITUDE 48'
p104
aS'_LONGITUDE 48'
p105
aS'_CAREORGANIZATION 49'
p106
aS'_EDUCATIONAL-EMPLOYEE 50'
p107
aS'_GEOGRAPHICAL-REGION 51'
p108
aS'_ACADEMIC-ITEM-NUMBER 52'
p109
aS'_BEVERAGE 53'
p110
aS'_STREET 54'
p111
aS'_CITY 54'
p112
aS'_STATE 54'
p113
aS'_COUNTRY 54'
p114
aS'_POSTALCODE 54'
p115
aS'_RESEARCHER 55'
p116
aS'_USERID 56'
p117
aS'_LATITUDE 56'
p118
aS'_LONGITUDE 56'
p119
aS'_GROCERYSTORE 57'
p120
aS'_COUNTRY 58'
p121
aS'_CITY 58'
p122
aS'_ENCYCLOPEDIA 59'
p123
aS'_TITLE 61'
p124
aS'_ENCYCLOPEDIA 62'
p125
aS'_FOOD 63'
p126
aS'_AUTHOR 64'
p127
aS'_COUNTRY 65'
p128
aS'_CITY 65'
p129
aS'AcceptCostAndHealingPlan_CostAndHealingPlan 66'
p130
aS'PatientTransport_PatientGpsPosition 67'
p131
aS'UpdatePatientMedicalRecords_Treatment 67'
p132
aS'GetPatientMedicalRecords_AuthorizationEndTime 67'
p133
aS'GetPatientMedicalRecords_PatientHealthInsuranceNumber 67'
p134
aS'GetPatientMedicalRecords_PhysicianID 67'
p135
aS'GetPatientMedicalRecords_PhysicianPassword 67'
p136
aS'_AUTHOR 68'
p137
aS'_BOOK 69'
p138
aS'_PUBLICATION 70'
p139
aS'_CAREORGANIZATION 71'
p140
aS'_ISBN 72'
p141
aS'_RETAILSTORE 73'
p142
aS'_BOOK 74'
p143
aS'_LATITUDE1 75'
p144
aS'_LONGITUDE1 75'
p145
aS'_LATITUDE2 75'
p146
aS'_LONGITUDE2 75'
p147
aS'_USERID 76'
p148
aS'_ZIPCODE 76'
p149
aS'_CENTER 77'
p150
aS'_IMAGE-SIZE 77'
p151
aS'_FORMAT 77'
p152
aS'_MARKERS 77'
p153
aS'_PATH 77'
p154
aS'_LANGUAGE 77'
p155
aS'_MAP-SPAN 77'
p156
aS'_CITY 78'
p157
aS'_RETAILSTORE 79'
p158
aS'GetNonMedicalFlightAccount_CustomerDesiredAccountName 80'
p159
aS'BookNonMedicalFlight_Account 80'
p160
aS'BookNonMedicalFlight_FlightNumber 80'
p161
aS'GetNonMedicalFlightAccount_CustomerName 80'
p162
aS'GetNonMedicalFlightAccount_CustomerAddress 80'
p163
aS'GetNonMedicalFlightAccount_CustomerCreditCardNumber 80'
p164
aS'GetNonMedicalFlightAccount_CustomerDesiredPassword 80'
p165
aS'GetNonMedicalFlightAccount_CustomerCreditCardExpDate 80'
p166
aS'_LICENSEKEY 81'
p167
aS'_CITY 81'
p168
aS'_STATE 81'
p169
aS'_LICENSEKEY 82'
p170
aS'_ZIPCODE 82'
p171
aS'GetMedicalFlightAccount_CustomerCreditCardNumber 83'
p172
aS'GetMedicalFlightAccount_CustomerName 83'
p173
aS'GetMedicalFlightAccount_CustomerCreditCardExpDate 83'
p174
aS'GetMedicalFlightAccount_CustomerDesiredPassword 83'
p175
aS'GetMedicalFlightAccount_CustomerDesiredAccountName 83'
p176
aS'GetMedicalFlightAccount_CustomerAddress 83'
p177
aS'_CITY 84'
p178
aS'_PROFESSOR-IN-ACADEMIA 85'
p179
aS'_PUBLICATION-NUMBER 86'
p180
aS'_GROCERYSTORE 87'
p181
aS'_HIKING 88'
p182
aS'_USERID 89'
p183
aS'_LATITUDE 89'
p184
aS'_LONGITUDE 89'
p185
aS'_USERID 90'
p186
aS'_ZIPCODE 90'
p187
aS'_HOSPITAL 91'
p188
aS'_LATITUDE1 93'
p189
aS'_LONGITUDE1 93'
p190
aS'_LATITUDE2 93'
p191
aS'_LONGITUDE2 93'
p192
aS'_DURATION 94'
p193
aS'_COUNTRY 94'
p194
aS'_CITY 94'
p195
aS'BookNonMedicalFlight_Account 95'
p196
aS'BookNonMedicalFlight_FlightNumber 95'
p197
aS'_ACTIVITY 96'
p198
aS'_CAPITAL-CITY 97'
p199
aS'_COUNTRY 97'
p200
aS'_CREDITCARDACCOUNT 98'
p201
aS'_BOOK 98'
p202
aS'_USER 98'
p203
aS'_EMPLOYEE 99'
p204
aS'_LICENSEKEY 100'
p205
aS'_RADIUS 100'
p206
aS'_MAX-RESULTS 100'
p207
aS'_LANGUAGE 100'
p208
aS'_POSTALCODE 100'
p209
aS'_COUNTRYCODE 100'
p210
aS'_RESEARCHER 101'
p211
aS'SelectOtherHospital_HospitalListFromEMA 102'
p212
aS'_LICENSEKEY 103'
p213
aS'_CITY 103'
p214
aS'_STATE 103'
p215
aS'_LICENSEKEY 104'
p216
aS'_ADDRESS 104'
p217
aS'_CITY 104'
p218
aS'_STATE 104'
p219
aS'_COUNTRY 104'
p220
aS'_HONEY 105'
p221
aS'_LICENSEKEY 106'
p222
aS'_POSTALCODE 106'
p223
aS'_PLACENAME 106'
p224
aS'_COUNTRYCODE 106'
p225
aS'_LICENSEKEY 107'
p226
aS'_CITY 107'
p227
aS'_STATE 107'
p228
aS'_COUNTRY 107'
p229
aS'_WITHIN-DISTANCE 107'
p230
aS'BookNonMedicalTransport_TransportNumber 108'
p231
aS'BookNonMedicalTransport_Account 108'
p232
aS'_BOOK 109'
p233
aS'GetNonMedicalTransportAccount_CustomerCreditCardExpDate 110'
p234
aS'GetNonMedicalTransportAccount_CustomerAddress 110'
p235
aS'GetNonMedicalTransportAccount_CustomerName 110'
p236
aS'GetNonMedicalTransportAccount_CustomerDesiredPassword 110'
p237
aS'GetNonMedicalTransportAccount_CustomerDesiredAccountName 110'
p238
aS'GetNonMedicalTransportAccount_CustomerCreditCardNumber 110'
p239
aS'InformHospital_DiagnosedSymptoms 111'
p240
aS'InformHospital_PatientArrivalDateTime 111'
p241
aS'InformHospital_SelectedHospital 111'
p242
aS'_COFFEE 112'
p243
aS'_USERID 113'
p244
aS'_ZIPCODE 113'
p245
aS'_ADDRESS 114'
p246
aS'_CITY 114'
p247
aS'_STATE 114'
p248
aS'_COUNTRY 115'
p249
aS'_ENCYCLOPEDIA 116'
p250
aS'_COUNTRY 118'
p251
aS'_ADDRESS 119'
p252
aS'_ACADEMIC 120'
p253
aS'_ACTIVITY 121'
p254
aS'_TITLE 122'
p255
aS'_ACADEMIC-ITEM-NUMBER 123'
p256
aS'_LATITUDE1 124'
p257
aS'_LONGITUDE1 124'
p258
aS'_LATITUDE2 124'
p259
aS'_LONGITUDE2 124'
p260
aS'_CITY1 125'
p261
aS'_CITY2 125'
p262
aS'_STATE1 125'
p263
aS'_STATE2 125'
p264
aS'_COUNTRY1 125'
p265
aS'_COUNTRY2 125'
p266
aS'_ACTIVITY 126'
p267
aS'ProvideMedicalTransportInformation_DesiredTransportVehicle 127'
p268
aS'ProvideMedicalTransportInformation_DesiredDepartureDateTime 127'
p269
aS'ProvideMedicalTransportInformation_Diagnosis 127'
p270
aS'ProvideMedicalTransportInformation_DepartureGpsPosition 127'
p271
aS'ProvideMedicalTransportInformation_DesiredTreatment 127'
p272
aS'ProvideMedicalTransportInformation_DestinationGpsPosition 127'
p273
aS'_ACTIVITY 128'
p274
aS'_CAREORGANIZATION 129'
p275
aS'_LICENSEKEY 130'
p276
aS'_ZIPCODE 130'
p277
aS'_CITY 131'
p278
aS'BookMedicalFlight_FlightNumber 132'
p279
aS'BookMedicalFlight_Account 132'
p280
aS'EBookRequest 133'
p281
aS'UserAccount 133'
p282
aS'CheckPersonnelAvailability_TreatmentRecomendation 134'
p283
aS'CheckHospitalAvailability_TreatmentRecomendation 134'
p284
aS'CheckHospitalAvailability_TreatmentDate 134'
p285
aS'ProvideMedicalTransportInformation_Diagnosis 135'
p286
aS'GetMedicalTransportAccount_CustomerDesiredPassword 135'
p287
aS'ProvideMedicalTransportInformation_DesiredDepartureDateTime 135'
p288
aS'GetMedicalTransportAccount_CustomerCreditCardExpDate 135'
p289
aS'GetMedicalTransportAccount_CustomerAddress 135'
p290
aS'GetMedicalTransportAccount_CustomerCreditCardNumber 135'
p291
aS'GetMedicalTransportAccount_CustomerDesiredAccountName 135'
p292
aS'GetMedicalTransportAccount_CustomerName 135'
p293
aS'_LICENSEKEY 136'
p294
aS'_RADIUS 136'
p295
aS'_MAX-RESULTS 136'
p296
aS'_LATITUDE 136'
p297
aS'_LONGITUDE 136'
p298
aS'_GROCERYSTORE 137'
p299
aS'_EDUCATIONAL-ORGANIZATION 138'
p300
aS'_LICENSEKEY 139'
p301
aS'_ADDRESS 139'
p302
a.