(lp0
S'get_PRICE 1'
p1
aS'get_LUXURYHOTEL 2'
p2
aS'get_PRICE 3'
p3
aS'get_ACCOMODATION 4'
p4
aS'get_FILM 5'
p5
aS'get_PROFESSOR-IN-ACADEMIA 6'
p6
aS'get_PERSON 7'
p7
aS'get_PRICE 8'
p8
aS'get_ZIPCODE_AREACODE_LATITUDE_LONGITUDE 9'
p9
aS'getUpdatePatientMedicalRecords_Acknowledgement 10'
p10
aS'get_DIAGNOSTICPROCESS_TIMEMEASURE 11'
p11
aS'get_COFFEE_WHISKEY 12'
p12
aS'get_HOTEL 13'
p13
aS'get_DISTANCE 14'
p14
aS'get_DIAGNOSTICPROCESS_TIMEDURATION 15'
p15
aS'get_POSTAL-ADDRESS 16'
p16
aS'get_BOOK 17'
p17
aS'getCheckEquipmentAvailability_AvailabilityResponse 18'
p18
aS'get_LOCATION_LATITUDE_LONGITUDE 19'
p19
aS'get_COFFEE_TEA_REPORT 20'
p20
aS'get_PUBLICATION_AUTHOR 21'
p21
aS'get_PRICE_QUANTITY 22'
p22
aS'get_HOTEL 23'
p23
aS'get_EXPERIMENTING 24'
p24
aS'get_DISTANCE 25'
p25
aS'get_DIAGNOSTICPROCESS_COST 26'
p26
aS'get_RESEARCHER 27'
p27
aS'get_INTENTIONALPSYCHOLOGICALPROCESS_SUMMARY 28'
p28
aS'get_LATITUDE_LONGITUDE 29'
p29
aS'get_FOOD_QUANTITY 30'
p30
aS'get_MAP 31'
p31
aS'get_TAXFREEPRICE_QUANTITY 32'
p32
aS'get_SKILLEDOCCUPATION 33'
p33
aS'get_HOTEL 34'
p34
aS'get_POSTALCODE_TIMEZONE_STATE_MATCHED-CITY_COUNTRY 35'
p35
aS'getCheckRoomAvailability_AvailabilityResponse 36'
p36
aS'get_TOTAL-DISTANCE_TOTAL-DRIVING-TIME_DIRECTIONS_MAP 37'
p37
aS'get_MEDICALDOCTOR 38'
p38
aS'get_HOTEL 39'
p39
aS'get_PURCHASEABLEITEM_PRICE 40'
p40
aS'get_LECTURER-IN-ACADEMIA 41'
p41
aS'getProvideMedicalFlightInformation_ListOfFlights 42'
p42
aS'get_COMEDYFILM_FANTACYFILM 43'
p43
aS'get_LATITUDE_LONGITUDE_PLACE 44'
p44
aS'get_POSTALCODE_TIMEZONE_AREA-PHONECODE_LATITUDE_LONGITUDE_COUNTY 45'
p45
aS'getCheckCostAndHealingPlan_AcceptanceAnswer 46'
p46
aS'getBookMedicalTransport_SeatNumberBookMedicalTransport_BookingNumber 47'
p47
aS'get_ELEVATION 48'
p48
aS'get_DIAGNOSTICPROCESS 49'
p49
aS'get_ADDRESS 50'
p50
aS'get_ORGANIZATION_OCCUPATIONALTRADE 51'
p51
aS'get_BOOK_AUTHOR 52'
p52
aS'get_MAXPRICE_QUANTITY 53'
p53
aS'get_LATITUDE_LONGITUDE_ADDRESS 54'
p54
aS'get_POSTAL-ADDRESS 55'
p55
aS'get_ALTITUDE 56'
p56
aS'get_BREADORBISCUIT_QUANTITY 57'
p57
aS'get_ACCOMMODATION 58'
p58
aS'get_PRICE 59'
p59
aS'get_DIAGNOSTICPROCESS_REASONING 60'
p60
aS'get_BOOK 61'
p61
aS'get_AUTHOR 62'
p62
aS'get_MAXPRICE_QUANTITY 63'
p63
aS'get_BOOK_PRICE 64'
p64
aS'get_DESTINATION_HOTEL 65'
p65
aS'getAcceptCostAndHealingPlan_CostAndHealingPlanAcceptanceAnswer 66'
p66
aS'getUpdatePatientMedicalRecords_AcknowledgementGetPatientMedicalRecords_AuthorizedMedicalRecords 67'
p67
aS'get_PUBLICATION_RECOMMENDEDPRICE 68'
p68
aS'get_AUTHOR_PRICE 69'
p69
aS'get_AUTHOR 70'
p70
aS'get_PREDICTING 71'
p71
aS'get_PUBLICATION 72'
p72
aS'get_FOOD_QUALITY 73'
p73
aS'get_AUTHOR 74'
p74
aS'get_DISTANCE 75'
p75
aS'get_LATITUDE_LONGITUDE_CITY_COUNTRY 76'
p76
aS'get_MAP 77'
p77
aS'get_LUXURYHOTEL 78'
p78
aS'get_PREPAREDFOOD_QUANTITY 79'
p79
aS'getGetNonMedicalFlightAccount_Account 80'
p80
aS'get_ZIPCODE 81'
p81
aS'get_CITY_STATE_TIMEZONE_DAYLIGHTSAVINGTIME 82'
p82
aS'getGetMedicalFlightAccount_Account 83'
p83
aS'get_HOTEL 84'
p84
aS'get_ADDRESS 85'
p85
aS'get_PUBLICATION 86'
p86
aS'get_FOOD 87'
p87
aS'get_DESTINATION 88'
p88
aS'get_ALTITUDE_LOCATION 89'
p89
aS'get_GEOGRAPHIC-AREA_CITY_COUNTRY 90'
p90
aS'get_DIAGNOSTICPROCESS_TIMEINTERVAL 91'
p91
aS'get_FOOD 92'
p92
aS'get_DISTANCE 93'
p93
aS'get 94'
p94
aS'getBookNonMedicalFlight_SeatNumberBookNonMedicalFlight_AirportGateBookNonMedicalFlight_BookingNumber 95'
p95
aS'get_DESTINATION 96'
p96
aS'get_HOTEL 97'
p97
aS'get 98'
p98
aS'get_POSTAL-ADDRESS 99'
p99
aS'get_LATITUDE_LONGITUDE_DISTANCE_WIKIPEDIA-ARTICLE 100'
p100
aS'get_ADDRESS 101'
p101
aS'getSelectOtherHospital_SelectedHospital 102'
p102
aS'get_LATITUDE_LONGITUDE 103'
p103
aS'get_VICINITY-MAP_THUMBNAIL-MAP_ADDRESS_LATITUDE_LONGITUDE_MAPSIZE 104'
p104
aS'get_PRICE 105'
p105
aS'get_COUNTRYCODE_LONGITUDE_POSTALCODE_PLACENAME_LATITUDE 106'
p106
aS'get_ZIPCODE_DISTANCE-TO-CITY 107'
p107
aS'getBookNonMedicalTransport_SeatNumberBookNonMedicalTransport_BookingNumber 108'
p108
aS'get 109'
p109
aS'getGetNonMedicalTransportAccount_Account 110'
p110
aS'getInformHospital_AcknowledgementResponse 111'
p111
aS'get_RECOMMENDEDPRICE 112'
p112
aS'get_GEOGRAPHIC-AREA_CITY_COUNTRY_TIMEZONE_DAYLIGHTSAVINGTIME 113'
p113
aS'get_LATITUDE_LONGITUDE 114'
p114
aS'get_PROFESSION_TIMEDURATION 115'
p115
aS'get_PUBLISHER 116'
p116
aS'get_AUTHOR 117'
p117
aS'get_COMPANY_SKILLEDOCCUPATION 118'
p118
aS'get_MATCHING-ADDRESS_LATITUDE_LONGITUDE 119'
p119
aS'get_ADDRESS 120'
p120
aS'get_CITY 121'
p121
aS'get 122'
p122
aS'get_PUBLICATION_AUTHOR 123'
p123
aS'get_DISTANCE 124'
p124
aS'get_DISTANCE 125'
p125
aS'get_FAMILYDESTINATION 126'
p126
aS'getProvideMedicalTransportInformation_ListOfTransports 127'
p127
aS'get_RURALAREA 128'
p128
aS'get_INVESTIGATING 129'
p129
aS'get_STATE_LATITUDE_LONGITUDE 130'
p130
aS'get_ACCOMMODATION 131'
p131
aS'getBookMedicalFlight_AirportGateBookMedicalFlight_BookingNumberBookMedicalFlight_SeatNumber 132'
p132
aS'getEBook 133'
p133
aS'getCheckHospitalAvailability_AvailabilityResponse 134'
p134
aS'getGetMedicalTransportAccount_Account 135'
p135
aS'get_POSTALCODE 136'
p136
aS'get_TEA_PRICE 137'
p137
aS'get_LECTURER-IN-ACADEMIA 138'
p138
aS'get_LOCATION_LATITUDE_LONGITUDE 139'
p139
a.