ccopy_reg
_reconstructor
p0
(cnetworkx.classes.digraph
DiGraph
p1
c__builtin__
object
p2
Ntp3
Rp4
(dp5
S'node'
p6
(dp7
S'CheckCostAndHealingPlan_CostAndHealingPlan 46'
p8
(dp9
sS'_GEOGRAPHIC-AREA 90'
p10
(dp11
sS'has-capital 97'
p12
(dp13
sS'get 94'
p14
(dp15
sS'GetMedicalTransportAccount_CustomerCreditCardExpDate 135'
p16
(dp17
sS'get 98'
p18
(dp19
sS'BookMedicalFlight_SeatNumber 132'
p20
(dp21
sS'meetsTemporally 91'
p22
(dp23
sS'get_AUTHOR 62'
p24
(dp25
sS'_HOSPITAL 24'
p26
(dp27
sS'_TIMEDURATION 15'
p28
(dp29
sS'_HOSPITAL 26'
p30
(dp31
sS'address-number 50'
p32
(dp33
sS'get_ACCOMMODATION 131'
p34
(dp35
sS'_QUANTITY 22'
p36
(dp37
sS'currency 105'
p38
(dp39
sS'ProvideMedicalFlightInformation_DesiredDepartureAirport 42'
p40
(dp41
sS'_ZIPCODE 130'
p42
(dp43
sS'UpdatePatientMedicalRecords_UsedDrugs 10'
p44
(dp45
sS'_RETAILSTORE 73'
p46
(dp47
sS'isTitled 1'
p48
(dp49
sS'_LONGITUDE 114'
p50
(dp51
sS'isTitled 3'
p52
(dp53
sS'hasCurrency 107'
p54
(dp55
sS'isTitled 7'
p56
(dp57
sS'_HOTEL 23'
p58
(dp59
sS'CheckPersonnelAvailability_TreatmentRecomendation 134'
p60
(dp61
sS'_LONGITUDE 119'
p62
(dp63
sS'_RECOMMENDEDPRICE 112'
p64
(dp65
sS'get_LATITUDE_LONGITUDE_CITY_COUNTRY 76'
p66
(dp67
sS'_COUNTRY 115'
p68
(dp69
sS'has-unit-of-measure 94'
p70
(dp71
sS'hasAccommodation 126'
p72
(dp73
sS'_CITY 82'
p74
(dp75
sS'_COUNTRY 118'
p76
(dp77
sS'_CITY 81'
p78
(dp79
sS'_PUBLICATION 86'
p80
(dp81
sS'_CITY 84'
p82
(dp83
sS'getSelectOtherHospital_SelectedHospital 102'
p84
(dp85
sS'durationID 94'
p86
(dp87
sS'BookNonMedicalTransport_TransportNumber 108'
p88
(dp89
sS'getProvideMedicalTransportInformation_ListOfTransports 127'
p90
(dp91
sS'BookMedicalFlight_Account 132'
p92
(dp93
sS'has-government 58'
p94
(dp95
sS'get_LATITUDE_LONGITUDE 103'
p96
(dp97
sS'_CENTER 77'
p98
(dp99
sS'_COUNTRY 54'
p100
(dp101
sS'_CITY 107'
p102
(dp103
sS'_COUNTRY 58'
p104
(dp105
sS'get_LECTURER-IN-ACADEMIA 41'
p106
(dp107
sS'_STATE 81'
p108
(dp109
sS'writtenBy 98'
p110
(dp111
sS'_POSTAL-ADDRESS 99'
p112
(dp113
sS'BookMedicalTransport_Account 47'
p114
(dp115
sS'ProvideMedicalTransportInformation_DesiredTransportVehicle 47'
p116
(dp117
sS'_ACCOMMODATION 58'
p118
(dp119
sS'_IMAGE-SIZE 77'
p120
(dp121
sS'currency 8'
p122
(dp123
sS'countryID 113'
p124
(dp125
sS'currency 3'
p126
(dp127
sS'has-currency 65'
p128
(dp129
sS'currency 1'
p130
(dp131
sS'hasAccommodation 39'
p132
(dp133
sS'_HOTEL 97'
p134
(dp135
sS'_ADDRESS 120'
p136
(dp137
sS'_CITY 113'
p138
(dp139
sS'cityID 94'
p140
(dp141
sS'_ACTIVITY 121'
p142
(dp143
sS'hasAirport 14'
p144
(dp145
sS'AcceptCostAndHealingPlan_CostAndHealingPlan 66'
p146
(dp147
sS'_DISTANCE-TO-CITY 107'
p148
(dp149
sS'get_LATITUDE_LONGITUDE_DISTANCE_WIKIPEDIA-ARTICLE 100'
p150
(dp151
sS'_LICENSEKEY 130'
p152
(dp153
sS'get_COFFEE_TEA_REPORT 20'
p154
(dp155
sS'get_BOOK 17'
p156
(dp157
sS'_MAP 77'
p158
(dp159
sS'has-capital 13'
p160
(dp161
sS'luxuryHotelID 2'
p162
(dp163
sS'experimentalControl 24'
p164
(dp165
sS'hasType 64'
p166
(dp167
sS'_PROFESSION 115'
p168
(dp169
sS'_START-LATITUDE 37'
p170
(dp171
sS'get_PERSON 7'
p172
(dp173
sS'_COUNTRY1 125'
p174
(dp175
sS'currency 40'
p176
(dp177
sS'GetMedicalFlightAccount_CustomerName 83'
p178
(dp179
sS'ProvideMedicalTransportInformation_Diagnosis 135'
p180
(dp181
sS'get_STATE_LATITUDE_LONGITUDE 130'
p182
(dp183
sS'_AUTHOR 117'
p184
(dp185
sS'_HOSPITAL 28'
p186
(dp187
sS'_ORGANIZATION 51'
p188
(dp189
sS'_LONGITUDE1 124'
p190
(dp191
sS'works-for 99'
p192
(dp193
sS'_FOOD 22'
p194
(dp195
sS'_AUTHOR 70'
p196
(dp197
sS'address-street 85'
p198
(dp199
sS'has-capital 115'
p200
(dp201
sS'_LATITUDE1 93'
p202
(dp203
sS'_HIGHER-EDUCATIONAL-ORGANIZATION 6'
p204
(dp205
sS'_FANTACYFILM 43'
p206
(dp207
sS'northwestCorner 113'
p208
(dp209
sS'_IMAGE-HEIGHT 37'
p210
(dp211
sS'hasCurrency 76'
p212
(dp213
sS'_MAXPRICE 63'
p214
(dp215
sS'_COUNTRY 94'
p216
(dp217
sS'_LATITUDE 29'
p218
(dp219
sS'countryID 76'
p220
(dp221
sS'get_FILM 5'
p222
(dp223
sS'BookNonMedicalFlight_SeatNumber 95'
p224
(dp225
sS'_RADIUS 136'
p226
(dp227
sS'_USSTATECODE1 25'
p228
(dp229
sS'_ADDRESS 104'
p230
(dp231
sS'hasGovernment 104'
p232
(dp233
sS'hasGovernment 107'
p234
(dp235
sS'CheckEquipmentAvailability_TreatmentRecomendation 18'
p236
(dp237
sS'_ADDRESS 101'
p238
(dp239
sS'_POSTALCODE 100'
p240
(dp241
sS'_COFFEE 112'
p242
(dp243
sS'_POSTALCODE 106'
p244
(dp245
sS'amount 69'
p246
(dp247
sS'get_CITY 121'
p248
(dp249
sS'amount 64'
p250
(dp251
sS'_LATITUDE 106'
p252
(dp253
sS'get_DISTANCE 14'
p254
(dp255
sS'_DIAGNOSTICPROCESS 26'
p256
(dp257
sS'capitalCity 33'
p258
(dp259
sS'_LUXURYHOTEL 78'
p260
(dp261
sS'_QUANTITY 63'
p262
(dp263
sS'getProvideMedicalFlightInformation_ListOfFlights 42'
p264
(dp265
sS'ListOfHospitals_consistsOf 102'
p266
(dp267
sS'_CITY2 125'
p268
(dp269
sS'currency 137'
p270
(dp271
sS'_BOOK 74'
p272
(dp273
sS'UpdatePatientMedicalRecords_PatientHealthInsuranceNumber 10'
p274
(dp275
sS'_RURALAREA 128'
p276
(dp277
sS'address-number 85'
p278
(dp279
sS'get_DISTANCE 75'
p280
(dp281
sS'getCheckCostAndHealingPlan_AcceptanceAnswer 46'
p282
(dp283
sS'get_PRICE 105'
p284
(dp285
sS'GetPatientMedicalRecords_PhysicianID 67'
p286
(dp287
sS'BookMedicalFlight_FlightNumber 42'
p288
(dp289
sS'_AREACODE 9'
p290
(dp291
sS'GetMedicalTransportAccount_CustomerCreditCardNumber 135'
p292
(dp293
sS'_COUNTRY 113'
p294
(dp295
sS'SelectOtherHospital_HospitalListFromEMA 102'
p296
(dp297
sS'_CITY 44'
p298
(dp299
sS'_CITY 45'
p300
(dp301
sS'_COMPANY 118'
p302
(dp303
sS'_LONGITUDE 48'
p304
(dp305
sS'_PREPAREDFOOD 79'
p306
(dp307
sS'CheckRoomAvailability_TreatmentRecomendation 36'
p308
(dp309
sS'_LONGITUDE 45'
p310
(dp311
sS'_LONGITUDE 44'
p312
(dp313
sS'get_COUNTRYCODE_LONGITUDE_POSTALCODE_PLACENAME_LATITUDE 106'
p314
(dp315
sS'get_LECTURER-IN-ACADEMIA 138'
p316
(dp317
sS'southeastCorner 90'
p318
(dp319
sS'GetNonMedicalFlightAccount_CustomerCreditCardNumber 80'
p320
(dp321
sS'_DISTANCE 14'
p322
(dp323
sS'get_DIAGNOSTICPROCESS_REASONING 60'
p324
(dp325
sS'GetMedicalFlightAccount_Account 83'
p326
(dp327
sS'address-area 101'
p328
(dp329
sS'address-area 85'
p330
(dp331
sS'BookMedicalFlight_Account 42'
p332
(dp333
sS'_HOSPITAL 15'
p334
(dp335
sS'GetPatientMedicalRecords_PatientHealthInsuranceNumber 67'
p336
(dp337
sS'get_VICINITY-MAP_THUMBNAIL-MAP_ADDRESS_LATITUDE_LONGITUDE_MAPSIZE 104'
p338
(dp339
sS'_HOSPITAL 11'
p340
(dp341
sS'_LONGITUDE 136'
p342
(dp343
sS'GetMedicalFlightAccount_CustomerAddress 83'
p344
(dp345
sS'hasActivity 126'
p346
(dp347
sS'hasSize 59'
p348
(dp349
sS'hasRating 2'
p350
(dp351
sS'get_PROFESSION_TIMEDURATION 115'
p352
(dp353
sS'getEBook 133'
p354
(dp355
sS'_RECOMMENDEDPRICE 68'
p356
(dp357
sS'_STATE2 125'
p358
(dp359
sS'_LATITUDE1 124'
p360
(dp361
sS'_STATE 45'
p362
(dp363
sS'_STATE 44'
p364
(dp365
sS'hasAirport 113'
p366
(dp367
sS'hasAccommodation 94'
p368
(dp369
sS'getBookMedicalTransport_SeatNumberBookMedicalTransport_BookingNumber 47'
p370
(dp371
sS'_RADIUS 100'
p372
(dp373
sS'hasCurrency 90'
p374
(dp375
sS'_USERID 48'
p376
(dp377
sS'cityID 65'
p378
(dp379
sS'has-faculty 27'
p380
(dp381
sS'GetNonMedicalTransportAccount_CustomerAddress 110'
p382
(dp383
sS'_AREA-PHONECODE 45'
p384
(dp385
sS'GetPatientMedicalRecords_PhysicianPassword 67'
p386
(dp387
sS'get_TAXFREEPRICE_QUANTITY 32'
p388
(dp389
sS'_BOOK 109'
p390
(dp391
sS'_PUBLICATION 123'
p392
(dp393
sS'UpdatePatientMedicalRecords_PhysicianPassword 10'
p394
(dp395
sS'_CAREORGANIZATION 71'
p396
(dp397
sS'_DAYLIGHTSAVINGTIME 82'
p398
(dp399
sS'InformHospital_SelectedHospital 111'
p400
(dp401
sS'_LUXURYHOTEL 2'
p402
(dp403
sS'InformHospital_DiagnosedSymptoms 111'
p404
(dp405
sS'_LONGITUDE2 93'
p406
(dp407
sS'BookNonMedicalTransport_BookingNumber 108'
p408
(dp409
sS'_FOOD 63'
p410
(dp411
sS'get_GEOGRAPHIC-AREA_CITY_COUNTRY_TIMEZONE_DAYLIGHTSAVINGTIME 113'
p412
(dp413
sS'address-region 120'
p414
(dp415
sS'_POSTALCODE 35'
p416
(dp417
sS'get_BREADORBISCUIT_QUANTITY 57'
p418
(dp419
sS'CheckHospitalAvailability_AvailabilityResponse 134'
p420
(dp421
sS'_STATE2 14'
p422
(dp423
sS'hasAirport 44'
p424
(dp425
sS'hasAirport 45'
p426
(dp427
sS'isTitled 109'
p428
(dp429
sS'get_BOOK 61'
p430
(dp431
sS'hasGovernment 35'
p432
(dp433
sS'get_LATITUDE_LONGITUDE_ADDRESS 54'
p434
(dp435
sS'get_HOTEL 23'
p436
(dp437
sS'_LATITUDE 9'
p438
(dp439
sS'get_SKILLEDOCCUPATION 33'
p440
(dp441
sS'luxuryHotelID 78'
p442
(dp443
sS'durationID 39'
p444
(dp445
sS'amount 22'
p446
(dp447
sS'get_ALTITUDE_LOCATION 89'
p448
(dp449
sS'getAcceptCostAndHealingPlan_CostAndHealingPlanAcceptanceAnswer 66'
p450
(dp451
sS'AcceptCostAndHealingPlan_CostAndHealingPlanAcceptanceAnswer 66'
p452
(dp453
sS'_DESTINATION 88'
p454
(dp455
sS'address-number 101'
p456
(dp457
sS'_ZIPCODE 44'
p458
(dp459
sS'GetNonMedicalTransportAccount_CustomerCreditCardNumber 110'
p460
(dp461
sS'has-currency 115'
p462
(dp463
sS'publishedBy 70'
p464
(dp465
sS'_MAX-RESULTS 136'
p466
(dp467
sS'BookNonMedicalTransport_Account 108'
p468
(dp469
sS'_MATCHING-ADDRESS 119'
p470
(dp471
sS'get_DIAGNOSTICPROCESS_COST 26'
p472
(dp473
sS'_ENCYCLOPEDIA 62'
p474
(dp475
sS'_TIMEZONE 82'
p476
(dp477
sS'_LONGITUDE 19'
p478
(dp479
sS'_SHOPPINGMALL 40'
p480
(dp481
sS'_DIAGNOSTICPROCESS 60'
p482
(dp483
sS'getBookNonMedicalFlight_SeatNumberBookNonMedicalFlight_AirportGateBookNonMedicalFlight_BookingNumber 95'
p484
(dp485
sS'_LECTURER-IN-ACADEMIA 138'
p486
(dp487
sS'GetNonMedicalTransportAccount_CustomerDesiredAccountName 110'
p488
(dp489
sS'hasCurrency 29'
p490
(dp491
sS'has-publication-reference 21'
p492
(dp493
sS'_LATITUDE 56'
p494
(dp495
sS'_CAPITAL-CITY 97'
p496
(dp497
sS'CheckHospitalAvailability_TreatmentRecomendation 18'
p498
(dp499
sS'_ALTITUDE 56'
p500
(dp501
sS'get_LATITUDE_LONGITUDE 29'
p502
(dp503
sS'get_AUTHOR_PRICE 69'
p504
(dp505
sS'works-for 16'
p506
(dp507
sS'_TIMEZONE 45'
p508
(dp509
sS'address-city-or-village 120'
p510
(dp511
sS'get_MAXPRICE_QUANTITY 53'
p512
(dp513
sS'cityID 39'
p514
(dp515
sS'_ADDRESS 44'
p516
(dp517
sS'_ADDRESS 45'
p518
(dp519
sS'address-number 120'
p520
(dp521
sS'_LONGITUDE 89'
p522
(dp523
sS'ListOfTransports_consistsOf 127'
p524
(dp525
sS'get_HOTEL 97'
p526
(dp527
sS'_TIMEZONE 35'
p528
(dp529
sS'_DIAGNOSTICPROCESS 15'
p530
(dp531
sS'GetNonMedicalTransportAccount_Account 110'
p532
(dp533
sS'get_RURALAREA 128'
p534
(dp535
sS'_DIAGNOSTICPROCESS 11'
p536
(dp537
sS'get_DISTANCE 25'
p538
(dp539
sS'has-publication-reference 52'
p540
(dp541
sS'_ZIPCODE 107'
p542
(dp543
sS'writtenBy 109'
p544
(dp545
sS'_QUANTITY 30'
p546
(dp547
sS'_QUANTITY 32'
p548
(dp549
sS'_PRICE 40'
p550
(dp551
sS'_CREDITCARDACCOUNT 3'
p552
(dp553
sS'_HOTEL 12'
p554
(dp555
sS'GetNonMedicalFlightAccount_CustomerDesiredAccountName 80'
p556
(dp557
sS'_LONGITUDE 106'
p558
(dp559
sS'_LANGUAGE 100'
p560
(dp561
sS'_LONGITUDE 103'
p562
(dp563
sS'address-country 120'
p564
(dp565
sS'ProvideMedicalFlightInformation_FlightCategory 42'
p566
(dp567
sS'_HIKING 88'
p568
(dp569
sS'_PERSON 3'
p570
(dp571
sS'_PUBLICATION 72'
p572
(dp573
sS'_PERSON 7'
p574
(dp575
sS'_PUBLICATION 70'
p576
(dp577
sS'get_TOTAL-DISTANCE_TOTAL-DRIVING-TIME_DIRECTIONS_MAP 37'
p578
(dp579
sS'cites-publication-reference 21'
p580
(dp581
sS'_REPORT 20'
p582
(dp583
sS'_CITY 90'
p584
(dp585
sS'southeastCorner 113'
p586
(dp587
sS'address-postcode 101'
p588
(dp589
sS'_DISTANCE 25'
p590
(dp591
sS'has-government 65'
p592
(dp593
sS'_COUNTRY 44'
p594
(dp595
sS'_COUNTRY 45'
p596
(dp597
sS'getGetNonMedicalFlightAccount_Account 80'
p598
(dp599
sS'get_ELEVATION 48'
p600
(dp601
sS'_VICINITY-MAP 104'
p602
(dp603
sS'writtenBy 64'
p604
(dp605
sS'writtenBy 133'
p606
(dp607
sS'writtenBy 61'
p608
(dp609
sS'GetNonMedicalFlightAccount_Account 80'
p610
(dp611
sS'get_HOTEL 84'
p612
(dp613
sS'_ZIPCODE 9'
p614
(dp615
sS'ListOfFlights_consistsOf 42'
p616
(dp617
sS'has-unit-of-measure 39'
p618
(dp619
sS'writtenBy 69'
p620
(dp621
sS'_USERID 90'
p622
(dp623
sS'_LICENSEKEY 139'
p624
(dp625
sS'ProvideMedicalFlightInformation_DesiredTreatment 42'
p626
(dp627
sS'has-capital 58'
p628
(dp629
sS'_COUNTRYCODE 100'
p630
(dp631
sS'_HOTEL 84'
p632
(dp633
sS'_PUBLICATION-NUMBER 86'
p634
(dp635
sS'_CITY 104'
p636
(dp637
sS'_MEDICALDOCTOR 38'
p638
(dp639
sS'get_PUBLICATION 72'
p640
(dp641
sS'_CITY 103'
p642
(dp643
sS'_ACADEMIC 16'
p644
(dp645
sS'_TEA 137'
p646
(dp647
sS'_LONGITUDE2 75'
p648
(dp649
sS'countryID 35'
p650
(dp651
sS'_RESEARCHER 27'
p652
(dp653
sS'BookMedicalFlight_AirportGate 132'
p654
(dp655
sS'_RECOMMENDEDPRICE 12'
p656
(dp657
sS'GetMedicalTransportAccount_CustomerAddress 135'
p658
(dp659
sS'_USCITY1 25'
p660
(dp661
sS'_UNIVERSITY 41'
p662
(dp663
sS'hasType 74'
p664
(dp665
sS'get_COFFEE_WHISKEY 12'
p666
(dp667
sS'_RETAILSTORE 79'
p668
(dp669
sS'BookNonMedicalFlight_AirportGate 95'
p670
(dp671
sS'get 122'
p672
(dp673
sS'_COUNTRY 31'
p674
(dp675
sS'datePublished 68'
p676
(dp677
sS'_COUNTRY 35'
p678
(dp679
sS'_COUNTRY 34'
p680
(dp681
sS'hasAirport 90'
p682
(dp683
sS'_COUNTRY 39'
p684
(dp685
sS'_DAYLIGHTSAVINGTIME 113'
p686
(dp687
sS'EndFn 91'
p688
(dp689
sS'_LATITUDE2 124'
p690
(dp691
sS'_GROCERYSTORE 87'
p692
(dp693
sS'address-pretty-label 101'
p694
(dp695
sS'_LATITUDE 19'
p696
(dp697
sS'_TIMEZONE 113'
p698
(dp699
sS'_CITY1 14'
p700
(dp701
sS'countryID 104'
p702
(dp703
sS'address-pretty-label 85'
p704
(dp705
sS'_DESTINATION 65'
p706
(dp707
sS'get_MAXPRICE_QUANTITY 63'
p708
(dp709
sS'_LONGITUDE1 93'
p710
(dp711
sS'_REASONING 60'
p712
(dp713
sS'works-for 50'
p714
(dp715
sS'_ADDRESS 85'
p716
(dp717
sS'_ADDRESS 119'
p718
(dp719
sS'_ADDRESS 114'
p720
(dp721
sS'hasGovernment 113'
p722
(dp723
sS'BookNonMedicalFlight_FlightNumber 80'
p724
(dp725
sS'_LOCATION 89'
p726
(dp727
sS'_LICENSEKEY 45'
p728
(dp729
sS'get_EXPERIMENTING 24'
p730
(dp731
sS'get_DISTANCE 124'
p732
(dp733
sS'Title 5'
p734
(dp735
sS'address-city-or-village 50'
p736
(dp737
sS'has-currency 31'
p738
(dp739
sS'_LONGITUDE 29'
p740
(dp741
sS'_HOSPITAL 91'
p742
(dp743
sS'has-currency 34'
p744
(dp745
sS'has-publication-reference 17'
p746
(dp747
sS'has-currency 39'
p748
(dp749
sS'get_FOOD_QUANTITY 30'
p750
(dp751
sS'get_PRICE 1'
p752
(dp753
sS'get_DESTINATION_HOTEL 65'
p754
(dp755
sS'get_PRICE 3'
p756
(dp757
sS'hasType 133'
p758
(dp759
sS'_ZIPCODE 76'
p760
(dp761
sS'get_PROFESSOR-IN-ACADEMIA 6'
p762
(dp763
sS'_FILM 5'
p764
(dp765
sS'_STATE1 125'
p766
(dp767
sS'_PUBLISHER 116'
p768
(dp769
sS'_CITY 58'
p770
(dp771
sS'address-city-or-village 101'
p772
(dp773
sS'_FORMAT 77'
p774
(dp775
sS'hasType 69'
p776
(dp777
sS'_CITY 54'
p778
(dp779
sS'address-area 50'
p780
(dp781
sS'_QUALITY 73'
p782
(dp783
sS'getGetMedicalTransportAccount_Account 135'
p784
(dp785
sS'_INTENTIONALPSYCHOLOGICALPROCESS 28'
p786
(dp787
sS'get_PREPAREDFOOD_QUANTITY 79'
p788
(dp789
sS'address-street 120'
p790
(dp791
sS'_ALTITUDE 89'
p792
(dp793
sS'_STATE1 14'
p794
(dp795
sS'_LONGITUDE 56'
p796
(dp797
sS'getBookMedicalFlight_AirportGateBookMedicalFlight_BookingNumberBookMedicalFlight_SeatNumber 132'
p798
(dp799
sS'_QUANTITY 79'
p800
(dp801
sS'_STATE 9'
p802
(dp803
sS'_STATE 29'
p804
(dp805
sS'GetPatientMedicalRecords_AuthorizationEndTime 67'
p806
(dp807
sS'GetNonMedicalTransportAccount_CustomerCreditCardExpDate 110'
p808
(dp809
sS'hasType 61'
p810
(dp811
sS'getGetNonMedicalTransportAccount_Account 110'
p812
(dp813
sS'_DISTANCE 100'
p814
(dp815
sS'_GROCERYSTORE 57'
p816
(dp817
sS'get_RESEARCHER 27'
p818
(dp819
sS'CheckRoomAvailability_TreatmentDate 36'
p820
(dp821
sS'_COUNTRY 107'
p822
(dp823
sS'get_MEDICALDOCTOR 38'
p824
(dp825
sS'_ADDRESS 139'
p826
(dp827
sS'_BOOK 17'
p828
(dp829
sS'GetMedicalFlightAccount_CustomerDesiredAccountName 83'
p830
(dp831
sS'_STATE 54'
p832
(dp833
sS'_ELEVATION 48'
p834
(dp835
sS'isTitled 69'
p836
(dp837
sS'_COUNTRY 97'
p838
(dp839
sS'_DURATION 94'
p840
(dp841
sS'isTitled 64'
p842
(dp843
sS'_ZIPCODE 90'
p844
(dp845
sS'isTitled 61'
p846
(dp847
sS'has-government 31'
p848
(dp849
sS'starts 91'
p850
(dp851
sS'has-government 34'
p852
(dp853
sS'get_ALTITUDE 56'
p854
(dp855
sS'_ZIPCODE 82'
p856
(dp857
sS'has-government 39'
p858
(dp859
sS'_USERID 76'
p860
(dp861
sS'_DISTANCE 75'
p862
(dp863
sS'_PLACE 44'
p864
(dp865
sS'ProvideMedicalTransportInformation_DestinationGpsPosition 127'
p866
(dp867
sS'_ACADEMIC 120'
p868
(dp869
sS'_COUNTRY 76'
p870
(dp871
sS'duration 91'
p872
(dp873
sS'getGetMedicalFlightAccount_Account 83'
p874
(dp875
sS'_LICENSEKEY 107'
p876
(dp877
sS'_LICENSEKEY 106'
p878
(dp879
sS'get_FOOD_QUALITY 73'
p880
(dp881
sS'_LICENSEKEY 104'
p882
(dp883
sS'_LICENSEKEY 103'
p884
(dp885
sS'_LICENSEKEY 100'
p886
(dp887
sS'_PRICE 105'
p888
(dp889
sS'get_ORGANIZATION_OCCUPATIONALTRADE 51'
p890
(dp891
sS'countryID 29'
p892
(dp893
sS'hasCurrency 104'
p894
(dp895
sS'cityID 121'
p896
(dp897
sS'get_CITY_STATE_TIMEZONE_DAYLIGHTSAVINGTIME 82'
p898
(dp899
sS'getCheckHospitalAvailability_AvailabilityResponse 134'
p900
(dp901
sS'hasAirport 77'
p902
(dp903
sS'hasAirport 76'
p904
(dp905
sS'hasAccommodation 121'
p906
(dp907
sS'get_POSTAL-ADDRESS 99'
p908
(dp909
sS'ProvideMedicalFlightInformation_ListOfFlights 42'
p910
(dp911
sS'has-capital 39'
p912
(dp913
sS'hasGovernment 29'
p914
(dp915
sS'_PROFESSOR-IN-ACADEMIA 6'
p916
(dp917
sS'get_PRICE 8'
p918
(dp919
sS'BookMedicalFlight_BookingNumber 132'
p920
(dp921
sS'address-region 50'
p922
(dp923
sS'get_ZIPCODE 81'
p924
(dp925
sS'has-capital 31'
p926
(dp927
sS'get_PUBLISHER 116'
p928
(dp929
sS'_DISTANCE 93'
p930
(dp931
sS'has-capital 34'
p932
(dp933
sS'currency 22'
p934
(dp935
sS'get_HOTEL 13'
p936
(dp937
sS'_LICENSEKEY 81'
p938
(dp939
sS'_LANGUAGE 77'
p940
(dp941
sS'_MAPSIZE 104'
p942
(dp943
sS'_ENCYCLOPEDIA 116'
p944
(dp945
sS'address-postcode 120'
p946
(dp947
sS'_PROFESSOR-IN-ACADEMIA 85'
p948
(dp949
sS'_STATE 114'
p950
(dp951
sS'get_DESTINATION 96'
p952
(dp953
sS'BookNonMedicalFlight_BookingNumber 95'
p954
(dp955
sS'amount 137'
p956
(dp957
sS'address-building 120'
p958
(dp959
sS'get_ADDRESS 85'
p960
(dp961
sS'_CITY 65'
p962
(dp963
sS'GetMedicalTransportAccount_CustomerDesiredAccountName 135'
p964
(dp965
sS'UpdatePatientMedicalRecords_Acknowledgement 10'
p966
(dp967
sS'get_COMPANY_SKILLEDOCCUPATION 118'
p968
(dp969
sS'hasGovernment 54'
p970
(dp971
sS'_LATITUDE 45'
p972
(dp973
sS'_LATITUDE 44'
p974
(dp975
sS'_POSTALCODE 54'
p976
(dp977
sS'_LATITUDE 89'
p978
(dp979
sS'_TEA 20'
p980
(dp981
sS'_AUTHOR 74'
p982
(dp983
sS'countryID 54'
p984
(dp985
sS'_DIAGNOSTICPROCESS 91'
p986
(dp987
sS'_LATITUDE 48'
p988
(dp989
sS'hasCurrency 54'
p990
(dp991
sS'get_FOOD 92'
p992
(dp993
sS'hasType 109'
p994
(dp995
sS'GetPatientMedicalRecords_AuthorizedMedicalRecords 67'
p996
(dp997
sS'get_ZIPCODE_DISTANCE-TO-CITY 107'
p998
(dp999
sS'get_POSTALCODE_TIMEZONE_STATE_MATCHED-CITY_COUNTRY 35'
p1000
(dp1001
sS'_BOOK 7'
p1002
(dp1003
sS'_ACADEMIC-ITEM-NUMBER 52'
p1004
(dp1005
sS'get 109'
p1006
(dp1007
sS'_BOOK 3'
p1008
(dp1009
sS'_BOOK 1'
p1010
(dp1011
sS'amount 40'
p1012
(dp1013
sS'_TOTAL-DRIVING-TIME 37'
p1014
(dp1015
sS'_BEVERAGE 32'
p1016
(dp1017
sS'_ACTIVITY 126'
p1018
(dp1019
sS'_ACTIVITY 128'
p1020
(dp1021
sS'amount 105'
p1022
(dp1023
sS'get_DISTANCE 93'
p1024
(dp1025
sS'UpdatePatientMedicalRecords_Acknowledgement 67'
p1026
(dp1027
sS'_ZIPCODE 113'
p1028
(dp1029
sS'_PRICE 59'
p1030
(dp1031
sS'UpdatePatientMedicalRecords_Diagnosis 10'
p1032
(dp1033
sS'hasAirport 107'
p1034
(dp1035
sS'hasAirport 104'
p1036
(dp1037
sS'_LONGITUDE 130'
p1038
(dp1039
sS'is-capital-of 97'
p1040
(dp1041
sS'_BOOK 52'
p1042
(dp1043
sS'_PRICE 8'
p1044
(dp1045
sS'_LONGITUDE 139'
p1046
(dp1047
sS'_PRICE 3'
p1048
(dp1049
sS'_PRICE 1'
p1050
(dp1051
sS'address-city-or-village 85'
p1052
(dp1053
sS'hasGovernment 76'
p1054
(dp1055
sS'_EMPLOYEE 99'
p1056
(dp1057
sS'_LATITUDE 54'
p1058
(dp1059
sS'_GEOGRAPHIC-AREA 113'
p1060
(dp1061
sS'_PUBLICATION 68'
p1062
(dp1063
sS'EBook 133'
p1064
(dp1065
sS'get_DIAGNOSTICPROCESS 49'
p1066
(dp1067
sS'getInformHospital_AcknowledgementResponse 111'
p1068
(dp1069
sS'address-building 85'
p1070
(dp1071
sS'get_PUBLICATION_RECOMMENDEDPRICE 68'
p1072
(dp1073
sS'_WIKIPEDIA-ARTICLE 100'
p1074
(dp1075
sS'_LATITUDE 139'
p1076
(dp1077
sS'_FOOD 8'
p1078
(dp1079
sS'_CITY 9'
p1080
(dp1081
sS'_LATITUDE 136'
p1082
(dp1083
sS'_ADDRESS2 14'
p1084
(dp1085
sS'_BREADORBISCUIT 57'
p1086
(dp1087
sS'ProvideMedicalTransportInformation_DepartureGpsPosition 127'
p1088
(dp1089
sS'_USSTATECODE2 25'
p1090
(dp1091
sS'writtenBy 74'
p1092
(dp1093
sS'_USERID 89'
p1094
(dp1095
sS'has-currency 97'
p1096
(dp1097
sS'_LONGITUDE 54'
p1098
(dp1099
sS'_TIMEINTERVAL 91'
p1100
(dp1101
sS'get_ADDRESS 120'
p1102
(dp1103
sS'_CITY 131'
p1104
(dp1105
sS'ProvideMedicalTransportInformation_DesiredTransportVehicle 127'
p1106
(dp1107
sS'_LATITUDE 130'
p1108
(dp1109
sS'_INVESTIGATING 129'
p1110
(dp1111
sS'get_PRICE_QUANTITY 22'
p1112
(dp1113
sS'hasAccommodation 58'
p1114
(dp1115
sS'ProvideMedicalTransportInformation_Diagnosis 127'
p1116
(dp1117
sS'cityAddress 33'
p1118
(dp1119
sS'_AUTHOR 21'
p1120
(dp1121
sS'northwestCorner 90'
p1122
(dp1123
sS'get_DIAGNOSTICPROCESS_TIMEDURATION 15'
p1124
(dp1125
sS'_DIRECTIONS 37'
p1126
(dp1127
sS'has-faculty 41'
p1128
(dp1129
sS'_RESEARCHER 55'
p1130
(dp1131
sS'address-country 85'
p1132
(dp1133
sS'currency 69'
p1134
(dp1135
sS'BookMedicalFlight_FlightNumber 132'
p1136
(dp1137
sS'get_LOCATION_LATITUDE_LONGITUDE 19'
p1138
(dp1139
sS'currency 64'
p1140
(dp1141
sS'has-vice-chancellor 41'
p1142
(dp1143
sS'_CITY 114'
p1144
(dp1145
sS'_THUMBNAIL-MAP 104'
p1146
(dp1147
sS'earlier 91'
p1148
(dp1149
sS'hasAirport 82'
p1150
(dp1151
sS'_COUNTRY 29'
p1152
(dp1153
sS'_AUTHOR 69'
p1154
(dp1155
sS'get_BOOK_PRICE 64'
p1156
(dp1157
sS'datePublished 70'
p1158
(dp1159
sS'BookNonMedicalFlight_Account 95'
p1160
(dp1161
sS'_CITY1 125'
p1162
(dp1163
sS'_AUTHOR 52'
p1164
(dp1165
sS'get_PUBLICATION_AUTHOR 123'
p1166
(dp1167
sS'address-pretty-label 50'
p1168
(dp1169
sS'_USERID 35'
p1170
(dp1171
sS'get_MAP 31'
p1172
(dp1173
sS'getUpdatePatientMedicalRecords_AcknowledgementGetPatientMedicalRecords_AuthorizedMedicalRecords 67'
p1174
(dp1175
sS'address-area 120'
p1176
(dp1177
sS'_COUNTRYCODE_OUT 106'
p1178
(dp1179
sS'GetNonMedicalFlightAccount_CustomerAddress 80'
p1180
(dp1181
sS'_ACADEMIC-ITEM-NUMBER 17'
p1182
(dp1183
sS'address-region 85'
p1184
(dp1185
sS'_CREDITCARDACCOUNT 98'
p1186
(dp1187
sS'_START-LONGITUDE 37'
p1188
(dp1189
sS'_FOOD 92'
p1190
(dp1191
sS'works-for 120'
p1192
(dp1193
sS'has-capital 65'
p1194
(dp1195
sS'_COFFEE 20'
p1196
(dp1197
sS'has-government 97'
p1198
(dp1199
sS'has-government 94'
p1200
(dp1201
sS'get_DESTINATION 88'
p1202
(dp1203
sS'get_POSTAL-ADDRESS 55'
p1204
(dp1205
sS'_TIMEMEASURE 11'
p1206
(dp1207
sS'_UNIVERSITY 27'
p1208
(dp1209
sS'get_PURCHASEABLEITEM_PRICE 40'
p1210
(dp1211
sS'GetNonMedicalTransportAccount_CustomerName 110'
p1212
(dp1213
sS'isTitled 133'
p1214
(dp1215
sS'_COST 26'
p1216
(dp1217
sS'get_POSTALCODE_TIMEZONE_AREA-PHONECODE_LATITUDE_LONGITUDE_COUNTY 45'
p1218
(dp1219
sS'hasAirport 35'
p1220
(dp1221
sS'_COUNTRY 90'
p1222
(dp1223
sS'hasRating 78'
p1224
(dp1225
sS'address-region 101'
p1226
(dp1227
sS'ProvideMedicalFlightInformation_Diagnosis 42'
p1228
(dp1229
sS'writtenBy 7'
p1230
(dp1231
sS'_DIAGNOSTICPROCESS 49'
p1232
(dp1233
sS'writtenBy 1'
p1234
(dp1235
sS'PatientTransport_PatientGpsPosition 10'
p1236
(dp1237
sS'writtenBy 3'
p1238
(dp1239
sS'_GEOGRAPHICAL-REGION 4'
p1240
(dp1241
sS'_LATITUDE1 75'
p1242
(dp1243
sS'CheckHospitalAvailability_TreatmentRecomendation 36'
p1244
(dp1245
sS'BookNonMedicalFlight_FlightNumber 95'
p1246
(dp1247
sS'UpdatePatientMedicalRecords_TreatmentDateTime 10'
p1248
(dp1249
sS'get_MATCHING-ADDRESS_LATITUDE_LONGITUDE 119'
p1250
(dp1251
sS'_GEOGRAPHICAL-REGION 2'
p1252
(dp1253
sS'SelectOtherHospital_SelectedHospital 102'
p1254
(dp1255
sS'during 91'
p1256
(dp1257
sS'countryID 90'
p1258
(dp1259
sS'_DISTANCE 124'
p1260
(dp1261
sS'_DISTANCE 125'
p1262
(dp1263
sS'_SKILLEDOCCUPATION 33'
p1264
(dp1265
sS'_RETAILSTORESTORE 30'
p1266
(dp1267
sS'_LATITUDE 76'
p1268
(dp1269
sS'_BOOK 98'
p1270
(dp1271
sS'_LATITUDE2 93'
p1272
(dp1273
sS'_CITY 29'
p1274
(dp1275
sS'get_PUBLICATION_AUTHOR 21'
p1276
(dp1277
sS'cityID 58'
p1278
(dp1279
sS'_PUBLICATION 21'
p1280
(dp1281
sS'hasCurrency 113'
p1282
(dp1283
sS'ProvideMedicalTransportInformation_DesiredDepartureDateTime 127'
p1284
(dp1285
sS'has-publication-reference 123'
p1286
(dp1287
sS'_TIMEDURATION 115'
p1288
(dp1289
sS'get_LATITUDE_LONGITUDE 114'
p1290
(dp1291
sS'_LATITUDE 103'
p1292
(dp1293
sS'_LICENSEKEY 82'
p1294
(dp1295
sS'_LATITUDE 100'
p1296
(dp1297
sS'get_AUTHOR 74'
p1298
(dp1299
sS'_ISBN 72'
p1300
(dp1301
sS'_LATITUDE 104'
p1302
(dp1303
sS'_ACCOMMODATION 131'
p1304
(dp1305
sS'_STATE 35'
p1306
(dp1307
sS'_LATITUDE2 75'
p1308
(dp1309
sS'get_BOOK_AUTHOR 52'
p1310
(dp1311
sS'BookNonMedicalFlight_Account 80'
p1312
(dp1313
sS'_COUNTRYCODE 106'
p1314
(dp1315
sS'_PRICE 69'
p1316
(dp1317
sS'_LONGITUDE1 75'
p1318
(dp1319
sS'get_AUTHOR 70'
p1320
(dp1321
sS'get_TEA_PRICE 137'
p1322
(dp1323
sS'hasGovernment 90'
p1324
(dp1325
sS'has-currency 58'
p1326
(dp1327
sS'_PRICE 64'
p1328
(dp1329
sS'EBookRequest 133'
p1330
(dp1331
sS'_SKILLEDOCCUPATION 118'
p1332
(dp1333
sS'_END-LATITUDE 37'
p1334
(dp1335
sS'_HOTEL 39'
p1336
(dp1337
sS'address-country 101'
p1338
(dp1339
sS'address-building 50'
p1340
(dp1341
sS'_HOTEL 34'
p1342
(dp1343
sS'get_ADDRESS 101'
p1344
(dp1345
sS'_TOTAL-DISTANCE 37'
p1346
(dp1347
sS'GetMedicalFlightAccount_CustomerDesiredPassword 83'
p1348
(dp1349
sS'_ACCOMODATION 4'
p1350
(dp1351
sS'_COUNTRY 104'
p1352
(dp1353
sS'isTitled 74'
p1354
(dp1355
sS'_DISTRICT 44'
p1356
(dp1357
sS'UpdatePatientMedicalRecords_PhysicianAuthorization 10'
p1358
(dp1359
sS'get_PUBLICATION 86'
p1360
(dp1361
sS'InformHospital_AcknowledgementResponse 111'
p1362
(dp1363
sS'_PLACENAME_OUT 106'
p1364
(dp1365
sS'get_INTENTIONALPSYCHOLOGICALPROCESS_SUMMARY 28'
p1366
(dp1367
sS'ProvideMedicalTransportInformation_DesiredTreatment 127'
p1368
(dp1369
sS'BookMedicalTransport_TransportNumber 47'
p1370
(dp1371
sS'get_DIAGNOSTICPROCESS_TIMEINTERVAL 91'
p1372
(dp1373
sS'_POSTAL-ADDRESS 16'
p1374
(dp1375
sS'getCheckRoomAvailability_AvailabilityResponse 36'
p1376
(dp1377
sS'_COUNTRY 65'
p1378
(dp1379
sS'_WHISKEY 12'
p1380
(dp1381
sS'_STATE 82'
p1382
(dp1383
sS'GetNonMedicalFlightAccount_CustomerDesiredPassword 80'
p1384
(dp1385
sS'_USERID 113'
p1386
(dp1387
sS'GetMedicalTransportAccount_Account 135'
p1388
(dp1389
sS'_TAXFREEPRICE 32'
p1390
(dp1391
sS'CheckHospitalAvailability_TreatmentDate 134'
p1392
(dp1393
sS'_PATH 77'
p1394
(dp1395
sS'get_POSTALCODE 136'
p1396
(dp1397
sS'_PRICE 137'
p1398
(dp1399
sS'has-job-title 99'
p1400
(dp1401
sS'_HOTEL 13'
p1402
(dp1403
sS'_LOCATION 139'
p1404
(dp1405
sS'ProvideMedicalFlightInformation_DesiredArrivalAirport 42'
p1406
(dp1407
sS'_WITHIN-DISTANCE 107'
p1408
(dp1409
sS'_LONGITUDE 104'
p1410
(dp1411
sS'getBookNonMedicalTransport_SeatNumberBookNonMedicalTransport_BookingNumber 108'
p1412
(dp1413
sS'_MAX-RESULTS 100'
p1414
(dp1415
sS'address-postcode 85'
p1416
(dp1417
sS'CheckCostAndHealingPlan_PatientHealthInsuranceNumber 46'
p1418
(dp1419
sS'_STATE 130'
p1420
(dp1421
sS'CheckRoomAvailability_AvailabilityResponse 36'
p1422
(dp1423
sS'_LONGITUDE 100'
p1424
(dp1425
sS'CheckPersonnelAvailability_TreatmentRecomendation 18'
p1426
(dp1427
sS'_COUNTRY2 125'
p1428
(dp1429
sS'_LONGITUDE2 124'
p1430
(dp1431
sS'address-street 50'
p1432
(dp1433
sS'CheckEquipmentAvailability_TreatmentDate 18'
p1434
(dp1435
sS'_STATE 103'
p1436
(dp1437
sS'_STATE 104'
p1438
(dp1439
sS'currency 59'
p1440
(dp1441
sS'_DESTINATION 96'
p1442
(dp1443
sS'UserAccount 133'
p1444
(dp1445
sS'_COMEDYFILM 43'
p1446
(dp1447
sS'_AUTHOR 68'
p1448
(dp1449
sS'get_POSTAL-ADDRESS 16'
p1450
(dp1451
sS'_FOOD 30'
p1452
(dp1453
sS'_ADDRESS1 14'
p1454
(dp1455
sS'_AUTHOR 64'
p1456
(dp1457
sS'_AUTHOR 62'
p1458
(dp1459
sS'_MARKERS 77'
p1460
(dp1461
sS'CheckHospitalAvailability_TreatmentRecomendation 134'
p1462
(dp1463
sS'_ISBN 21'
p1464
(dp1465
sS'ProvideMedicalFlightInformation_DesiredDepartureDateTime 42'
p1466
(dp1467
sS'_LONGITUDE 76'
p1468
(dp1469
sS'_PREDICTING 71'
p1470
(dp1471
sS'GetNonMedicalFlightAccount_CustomerCreditCardExpDate 80'
p1472
(dp1473
sS'address-pretty-label 120'
p1474
(dp1475
sS'hasGovernment 45'
p1476
(dp1477
sS'hasGovernment 44'
p1478
(dp1479
sS'hasAirport 9'
p1480
(dp1481
sS'_ZIPCODE 81'
p1482
(dp1483
sS'_STATE 107'
p1484
(dp1485
sS'cites-publication-reference 123'
p1486
(dp1487
sS'get_DISTANCE 125'
p1488
(dp1489
sS'_SUMMARY 28'
p1490
(dp1491
sS'countryID 44'
p1492
(dp1493
sS'hasCurrency 45'
p1494
(dp1495
sS'hasCurrency 44'
p1496
(dp1497
sS'get_ADDRESS 50'
p1498
(dp1499
sS'_MATCHED-CITY 35'
p1500
(dp1501
sS'get_ACCOMODATION 4'
p1502
(dp1503
sS'get_FOOD 87'
p1504
(dp1505
sS'GetMedicalFlightAccount_CustomerCreditCardExpDate 83'
p1506
(dp1507
sS'InformHospital_PatientArrivalDateTime 111'
p1508
(dp1509
sS'has-capital 94'
p1510
(dp1511
sS'UpdatePatientMedicalRecords_Treatment 67'
p1512
(dp1513
sS'has-currency 94'
p1514
(dp1515
sS'amount 59'
p1516
(dp1517
sS'_FAMILYDESTINATION 126'
p1518
(dp1519
sS'BookMedicalTransport_SeatNumber 47'
p1520
(dp1521
sS'_GEOGRAPHICAL-REGION 51'
p1522
(dp1523
sS'_PURCHASEABLEITEM 40'
p1524
(dp1525
sS'CheckCostAndHealingPlan_AcceptanceAnswer 46'
p1526
(dp1527
sS'amount 8'
p1528
(dp1529
sS'_RESEARCHER 101'
p1530
(dp1531
sS'_DURATION 39'
p1532
(dp1533
sS'has-publication-reference 72'
p1534
(dp1535
sS'get_AUTHOR 117'
p1536
(dp1537
sS'has-currency 13'
p1538
(dp1539
sS'BookNonMedicalTransport_SeatNumber 108'
p1540
(dp1541
sS'amount 1'
p1542
(dp1543
sS'amount 3'
p1544
(dp1545
sS'_QUANTITY 53'
p1546
(dp1547
sS'has-contract-type 99'
p1548
(dp1549
sS'_BOOK 69'
p1550
(dp1551
sS'_QUANTITY 57'
p1552
(dp1553
sS'_USER 98'
p1554
(dp1555
sS'_PRICE 22'
p1556
(dp1557
sS'_MAXPRICE 53'
p1558
(dp1559
sS'_BOOK 61'
p1560
(dp1561
sS'hasAirport 114'
p1562
(dp1563
sS'_BOOK 64'
p1564
(dp1565
sS'_CAREORGANIZATION 129'
p1566
(dp1567
sS'getCheckEquipmentAvailability_AvailabilityResponse 18'
p1568
(dp1569
sS'hasAirport 103'
p1570
(dp1571
sS'_GEOGRAPHICAL-REGION 23'
p1572
(dp1573
sS'_ADDRESS 19'
p1574
(dp1575
sS'get_RECOMMENDEDPRICE 112'
p1576
(dp1577
sS'_CITY 76'
p1578
(dp1579
sS'works-in-unit 99'
p1580
(dp1581
sS'get_LOCATION_LATITUDE_LONGITUDE 139'
p1582
(dp1583
sS'_MAP-SPAN 77'
p1584
(dp1585
sS'_CITY 78'
p1586
(dp1587
sS'get_DIAGNOSTICPROCESS_TIMEMEASURE 11'
p1588
(dp1589
sS'hasSize 116'
p1590
(dp1591
sS'hasAirport 81'
p1592
(dp1593
sS'_AUTHOR 123'
p1594
(dp1595
sS'GetMedicalFlightAccount_CustomerCreditCardNumber 83'
p1596
(dp1597
sS'_BEVERAGE 53'
p1598
(dp1599
sS'_ACADEMIC-ITEM-NUMBER 123'
p1600
(dp1601
sS'isTitled 98'
p1602
(dp1603
sS'_POSTAL-ADDRESS 55'
p1604
(dp1605
sS'_USCITY2 25'
p1606
(dp1607
sS'_FOOD 87'
p1608
(dp1609
sS'get_COMEDYFILM_FANTACYFILM 43'
p1610
(dp1611
sS'_PLACENAME 106'
p1612
(dp1613
sS'_GROCERYSTORE 137'
p1614
(dp1615
sS'address-building 101'
p1616
(dp1617
sS'cites-publication-reference 72'
p1618
(dp1619
sS'BeginFn 91'
p1620
(dp1621
sS'CheckEquipmentAvailability_AvailabilityResponse 18'
p1622
(dp1623
sS'countryID 107'
p1624
(dp1625
sS'hasSize 62'
p1626
(dp1627
sS'get_LATITUDE_LONGITUDE_PLACE 44'
p1628
(dp1629
sS'_CITY 121'
p1630
(dp1631
sS'UpdatePatientMedicalRecords_PhysicianID 10'
p1632
(dp1633
sS'_HOTEL 65'
p1634
(dp1635
sS'hasAccommodation 65'
p1636
(dp1637
sS'GetMedicalTransportAccount_CustomerDesiredPassword 135'
p1638
(dp1639
sS'PatientTransport_PatientGpsPosition 67'
p1640
(dp1641
sS'_LANGUAGE 37'
p1642
(dp1643
sS'_USERID 56'
p1644
(dp1645
sS'get_FAMILYDESTINATION 126'
p1646
(dp1647
sS'get_INVESTIGATING 129'
p1648
(dp1649
sS'_LOCATION 19'
p1650
(dp1651
sS'has-government 115'
p1652
(dp1653
sS'hasType 98'
p1654
(dp1655
sS'_CAREORGANIZATION 49'
p1656
(dp1657
sS'_POSTALCODE 45'
p1658
(dp1659
sS'_LECTURER-IN-ACADEMIA 41'
p1660
(dp1661
sS'_COUNTRY 13'
p1662
(dp1663
sS'GetNonMedicalTransportAccount_CustomerDesiredPassword 110'
p1664
(dp1665
sS'getUpdatePatientMedicalRecords_Acknowledgement 10'
p1666
(dp1667
sS'get_PREDICTING 71'
p1668
(dp1669
sS'_FOOD 73'
p1670
(dp1671
sS'ProvideMedicalTransportInformation_ListOfTransports 127'
p1672
(dp1673
sS'has-government 13'
p1674
(dp1675
sS'get_MAP 77'
p1676
(dp1677
sS'_USERID 37'
p1678
(dp1679
sS'_ENCYCLOPEDIA 59'
p1680
(dp1681
sS'_STREET 54'
p1682
(dp1683
sS'_EXPERIMENTING 24'
p1684
(dp1685
sS'_CITY 94'
p1686
(dp1687
sS'hasAirport 54'
p1688
(dp1689
sS'ProvideMedicalTransportInformation_DesiredDepartureDateTime 135'
p1690
(dp1691
sS'_CITY2 14'
p1692
(dp1693
sS'_EDUCATIONAL-ORGANIZATION 138'
p1694
(dp1695
sS'countryID 45'
p1696
(dp1697
sS'_END-LONGITUDE 37'
p1698
(dp1699
sS'get_HOTEL 34'
p1700
(dp1701
sS'_LATITUDE 114'
p1702
(dp1703
sS'BookMedicalTransport_BookingNumber 47'
p1704
(dp1705
sS'publishedBy 68'
p1706
(dp1707
sS'_COFFEE 12'
p1708
(dp1709
sS'GetMedicalTransportAccount_CustomerName 135'
p1710
(dp1711
sS'_MAP 37'
p1712
(dp1713
sS'_POSTALCODE 136'
p1714
(dp1715
sS'get_HOTEL 39'
p1716
(dp1717
sS'_MAP 31'
p1718
(dp1719
sS'GetNonMedicalFlightAccount_CustomerName 80'
p1720
(dp1721
sS'_OCCUPATIONALTRADE 51'
p1722
(dp1723
sS'hasAirport 29'
p1724
(dp1725
sS'_HONEY 105'
p1726
(dp1727
sS'UpdatePatientMedicalRecords_Treatment 10'
p1728
(dp1729
sS'_TITLE 61'
p1730
(dp1731
sS'hasType 1'
p1732
(dp1733
sS'hasType 3'
p1734
(dp1735
sS'has-vice-chancellor 27'
p1736
(dp1737
sS'address-postcode 50'
p1738
(dp1739
sS'hasAirport 25'
p1740
(dp1741
sS'hasType 7'
p1742
(dp1743
sS'_LICENSEKEY 136'
p1744
(dp1745
sS'address-street 101'
p1746
(dp1747
sS'get_GEOGRAPHIC-AREA_CITY_COUNTRY 90'
p1748
(dp1749
sS'_COUNTY 45'
p1750
(dp1751
sS'_COUNTY 44'
p1752
(dp1753
sS'get_ZIPCODE_AREACODE_LATITUDE_LONGITUDE 9'
p1754
(dp1755
sS'_LICENSEKEY 19'
p1756
(dp1757
sS'cites-publication-reference 86'
p1758
(dp1759
sS'_POSTALCODE_OUT 106'
p1760
(dp1761
sS'get_LUXURYHOTEL 2'
p1762
(dp1763
sS'_LONGITUDE 9'
p1764
(dp1765
sS'_IMAGE-WIDTH 37'
p1766
(dp1767
sS'get_ACCOMMODATION 58'
p1768
(dp1769
sS'get_LUXURYHOTEL 78'
p1770
(dp1771
sS'_TITLE 122'
p1772
(dp1773
sS'hasCurrency 35'
p1774
(dp1775
sS'_CITY 39'
p1776
(dp1777
sS'get_PRICE 59'
p1778
(dp1779
sS'_CITY 35'
p1780
(dp1781
sS'_CITY 34'
p1782
(dp1783
sS'_CITY 33'
p1784
(dp1785
sS'has-publication-reference 86'
p1786
(dp1787
sS'_EDUCATIONAL-EMPLOYEE 50'
p1788
(dp1789
sS'address-country 50'
p1790
(dp1791
sS'_ADDRESS 54'
p1792
(dp1793
sS'_ACTIVITY 96'
p1794
(dp1795
sS'_ADDRESS 50'
p1796
(dp1797
sS'_LATITUDE 119'
p1798
(dp1799
sS'finishes 91'
p1800
(dp1801
ssS'graph'
p1802
(dp1803
sS'succ'
p1804
(dp1805
g8
(dp1806
g282
(dp1807
ssg10
(dp1808
g318
(dp1809
sg1122
(dp1810
ssg12
(dp1811
g838
(dp1812
ssg14
(dp1813
sg16
(dp1814
g784
(dp1815
ssg18
(dp1816
sg20
(dp1817
sg22
(dp1818
sg24
(dp1819
g1458
(dp1820
ssg26
(dp1821
g730
(dp1822
ssg28
(dp1823
sg30
(dp1824
g472
(dp1825
ssg32
(dp1826
sg34
(dp1827
g1304
(dp1828
ssg36
(dp1829
sg38
(dp1830
sg40
(dp1831
g264
(dp1832
ssg42
(dp1833
g182
(dp1834
ssg44
(dp1835
g1666
(dp1836
ssg46
(dp1837
g880
(dp1838
ssg48
(dp1839
g1010
(dp1840
ssg50
(dp1841
S'_LONGITUDE 89'
p1842
(dp1843
sS'_LONGITUDE 136'
p1844
(dp1845
sS'_LONGITUDE 56'
p1846
(dp1847
sS'_LONGITUDE 48'
p1848
(dp1849
ssg52
(dp1850
g1008
(dp1851
ssg54
(dp1852
g822
(dp1853
ssg56
(dp1854
g1002
(dp1855
ssg58
(dp1856
S'_HOTEL 12'
p1857
(dp1858
ssg60
(dp1859
g900
(dp1860
ssg62
(dp1861
S'_LONGITUDE 89'
p1862
(dp1863
sS'_LONGITUDE 136'
p1864
(dp1865
sS'_LONGITUDE 56'
p1866
(dp1867
sS'_LONGITUDE 48'
p1868
(dp1869
ssg64
(dp1870
S'_RECOMMENDEDPRICE 12'
p1871
(dp1872
ssg66
(dp1873
g870
(dp1874
sg1268
(dp1875
sg1468
(dp1876
sg1578
(dp1877
ssg68
(dp1878
g352
(dp1879
ssg70
(dp1880
g840
(dp1881
ssg72
(dp1882
sg74
(dp1883
S'_CITY 58'
p1884
(dp1885
sS'_CITY 81'
p1886
(dp1887
sS'_CITY 29'
p1888
(dp1889
sS'_CITY 39'
p1890
(dp1891
sg1150
(dp1892
sS'_CITY 114'
p1893
(dp1894
sS'_CITY 35'
p1895
(dp1896
sS'_CITY 34'
p1897
(dp1898
sS'_CITY 33'
p1899
(dp1900
sS'_CITY 54'
p1901
(dp1902
sS'_CITY 9'
p1903
(dp1904
sS'_CITY 44'
p1905
(dp1906
sS'_CITY 45'
p1907
(dp1908
sS'_CITY 131'
p1909
(dp1910
sS'_CITY 65'
p1911
(dp1912
sS'_CITY 107'
p1913
(dp1914
sS'_CITY 94'
p1915
(dp1916
sS'_CITY 104'
p1917
(dp1918
sS'_CITY 78'
p1919
(dp1920
sS'_CITY 103'
p1921
(dp1922
sS'_CITY 84'
p1923
(dp1924
ssg76
(dp1925
g968
(dp1926
ssg78
(dp1927
g924
(dp1928
ssg80
(dp1929
S'_PUBLICATION 70'
p1930
(dp1931
sg1786
(dp1932
sg1758
(dp1933
ssg82
(dp1934
g612
(dp1935
ssg84
(dp1936
g1254
(dp1937
ssg86
(dp1938
g840
(dp1939
ssg88
(dp1940
g1412
(dp1941
ssg90
(dp1942
g1672
(dp1943
ssg92
(dp1944
g798
(dp1945
ssg94
(dp1946
g104
(dp1947
ssg96
(dp1948
g1292
(dp1949
sg562
(dp1950
ssg98
(dp1951
g1676
(dp1952
ssg100
(dp1953
g434
(dp1954
ssg102
(dp1955
g998
(dp1956
ssg104
(dp1957
g1768
(dp1958
ssg106
(dp1959
g1660
(dp1960
ssg108
(dp1961
g924
(dp1962
ssg110
(dp1963
g1270
(dp1964
ssg112
(dp1965
sg114
(dp1966
g370
(dp1967
ssg116
(dp1968
g370
(dp1969
ssg118
(dp1970
S'hasAccommodation 65'
p1971
(dp1972
sS'hasAccommodation 94'
p1973
(dp1974
sS'hasAccommodation 39'
p1975
(dp1976
sS'hasAccommodation 58'
p1977
(dp1978
ssg120
(dp1979
g1676
(dp1980
ssg122
(dp1981
sg124
(dp1982
sg126
(dp1983
sg128
(dp1984
g1378
(dp1985
ssg130
(dp1986
sg132
(dp1987
g1776
(dp1988
ssg134
(dp1989
S'_HOTEL 12'
p1990
(dp1991
ssg136
(dp1992
g414
(dp1993
sS'_ADDRESS 114'
p1994
(dp1995
sS'_ADDRESS 119'
p1996
(dp1997
sg946
(dp1998
sS'_ADDRESS 104'
p1999
(dp2000
sg564
(dp2001
sg1474
(dp2002
sS'_ADDRESS 139'
p2003
(dp2004
sg1176
(dp2005
sS'_ADDRESS 44'
p2006
(dp2007
sS'_ADDRESS 45'
p2008
(dp2009
sS'_ADDRESS 19'
p2010
(dp2011
sg520
(dp2012
sg510
(dp2013
sg790
(dp2014
sg958
(dp2015
ssg138
(dp2016
S'_CITY 58'
p2017
(dp2018
sS'_CITY 81'
p2019
(dp2020
sS'_CITY 29'
p2021
(dp2022
sS'_CITY 39'
p2023
(dp2024
sS'_CITY 104'
p2025
(dp2026
sS'_CITY 114'
p2027
(dp2028
sS'_CITY 35'
p2029
(dp2030
sS'_CITY 34'
p2031
(dp2032
sS'_CITY 33'
p2033
(dp2034
sS'_CITY 54'
p2035
(dp2036
sS'_CITY 9'
p2037
(dp2038
sS'_CITY 44'
p2039
(dp2040
sS'_CITY 45'
p2041
(dp2042
sS'_CITY 131'
p2043
(dp2044
sS'_CITY 65'
p2045
(dp2046
sS'_CITY 107'
p2047
(dp2048
sS'_CITY 94'
p2049
(dp2050
sg366
(dp2051
sS'_CITY 78'
p2052
(dp2053
sS'_CITY 103'
p2054
(dp2055
sS'_CITY 84'
p2056
(dp2057
ssg140
(dp2058
g1686
(dp2059
ssg142
(dp2060
g248
(dp2061
ssg144
(dp2062
g700
(dp2063
sg1692
(dp2064
ssg146
(dp2065
g450
(dp2066
ssg148
(dp2067
sg150
(dp2068
g1074
(dp2069
sg814
(dp2070
sg1296
(dp2071
sg1424
(dp2072
ssg152
(dp2073
g182
(dp2074
ssg154
(dp2075
g1196
(dp2076
sg582
(dp2077
sg980
(dp2078
ssg156
(dp2079
g828
(dp2080
ssg158
(dp2081
sg160
(dp2082
g1662
(dp2083
ssg162
(dp2084
sg164
(dp2085
sg166
(dp2086
sg168
(dp2087
sg170
(dp2088
g578
(dp2089
ssg172
(dp2090
g574
(dp2091
ssg174
(dp2092
g1488
(dp2093
ssg176
(dp2094
sg178
(dp2095
g874
(dp2096
ssg180
(dp2097
g784
(dp2098
ssg182
(dp2099
g1038
(dp2100
sg1420
(dp2101
sg1108
(dp2102
ssg184
(dp2103
S'_AUTHOR 64'
p2104
(dp2105
sS'_AUTHOR 68'
p2106
(dp2107
ssg186
(dp2108
g1366
(dp2109
ssg188
(dp2110
sg190
(dp2111
g732
(dp2112
ssg192
(dp2113
g1056
(dp2114
ssg194
(dp2115
g1112
(dp2116
ssg196
(dp2117
S'_AUTHOR 64'
p2118
(dp2119
sS'_AUTHOR 68'
p2120
(dp2121
ssg198
(dp2122
sg200
(dp2123
g68
(dp2124
ssg202
(dp2125
g1024
(dp2126
ssg204
(dp2127
g762
(dp2128
ssg206
(dp2129
sg208
(dp2130
sg210
(dp2131
g578
(dp2132
ssg212
(dp2133
sg214
(dp2134
sg216
(dp2135
g14
(dp2136
ssg218
(dp2137
S'_LATITUDE 89'
p2138
(dp2139
sS'_LATITUDE 136'
p2140
(dp2141
sS'_LATITUDE 56'
p2142
(dp2143
sS'_LATITUDE 48'
p2144
(dp2145
ssg220
(dp2146
sg222
(dp2147
g764
(dp2148
ssg224
(dp2149
sg226
(dp2150
g1396
(dp2151
ssg228
(dp2152
g538
(dp2153
ssg230
(dp2154
S'_ADDRESS 119'
p2155
(dp2156
sS'_ADDRESS 104'
p2157
(dp2158
sS'_ADDRESS 114'
p2159
(dp2160
sS'_ADDRESS 139'
p2161
(dp2162
sg338
(dp2163
sS'_ADDRESS 44'
p2164
(dp2165
sS'_ADDRESS 45'
p2166
(dp2167
sS'_ADDRESS 19'
p2168
(dp2169
ssg232
(dp2170
g1352
(dp2171
ssg234
(dp2172
g822
(dp2173
ssg236
(dp2174
g1568
(dp2175
ssg238
(dp2176
g694
(dp2177
sg1746
(dp2178
sg1338
(dp2179
sg772
(dp2180
sg456
(dp2181
sS'_ADDRESS 139'
p2182
(dp2183
sS'_ADDRESS 119'
p2184
(dp2185
sS'_ADDRESS 114'
p2186
(dp2187
sg588
(dp2188
sg328
(dp2189
sS'_ADDRESS 44'
p2190
(dp2191
sS'_ADDRESS 45'
p2192
(dp2193
sS'_ADDRESS 19'
p2194
(dp2195
sS'_ADDRESS 104'
p2196
(dp2197
sg1616
(dp2198
sg1226
(dp2199
ssg240
(dp2200
g150
(dp2201
ssg242
(dp2202
g1576
(dp2203
ssg244
(dp2204
g314
(dp2205
ssg246
(dp2206
sg248
(dp2207
g1630
(dp2208
ssg250
(dp2209
sg252
(dp2210
S'_LATITUDE 89'
p2211
(dp2212
sS'_LATITUDE 136'
p2213
(dp2214
sS'_LATITUDE 56'
p2215
(dp2216
sS'_LATITUDE 48'
p2217
(dp2218
ssg254
(dp2219
g322
(dp2220
ssg256
(dp2221
sg258
(dp2222
g1784
(dp2223
ssg260
(dp2224
g442
(dp2225
sg1224
(dp2226
ssg262
(dp2227
sg264
(dp2228
g910
(dp2229
ssg266
(dp2230
g296
(dp2231
ssg268
(dp2232
g1488
(dp2233
ssg270
(dp2234
sg272
(dp2235
g1298
(dp2236
ssg274
(dp2237
g1666
(dp2238
ssg276
(dp2239
sg278
(dp2240
sg280
(dp2241
g862
(dp2242
ssg282
(dp2243
g1526
(dp2244
ssg284
(dp2245
g888
(dp2246
ssg286
(dp2247
g1174
(dp2248
ssg288
(dp2249
g264
(dp2250
ssg290
(dp2251
sg292
(dp2252
g784
(dp2253
ssg294
(dp2254
S'_COUNTRY 31'
p2255
(dp2256
sS'_COUNTRY 65'
p2257
(dp2258
sS'_COUNTRY 13'
p2259
(dp2260
sg1282
(dp2261
sg124
(dp2262
sS'_COUNTRY 39'
p2263
(dp2264
sS'_COUNTRY 34'
p2265
(dp2266
sS'_COUNTRY 118'
p2267
(dp2268
sg722
(dp2269
sS'_COUNTRY 107'
p2270
(dp2271
sS'_COUNTRY 104'
p2272
(dp2273
sS'_COUNTRY 44'
p2274
(dp2275
sS'_COUNTRY 45'
p2276
(dp2277
sS'_COUNTRY 115'
p2278
(dp2279
sS'_COUNTRY 54'
p2280
(dp2281
sS'_COUNTRY 29'
p2282
(dp2283
sS'_COUNTRY 58'
p2284
(dp2285
sS'_COUNTRY 97'
p2286
(dp2287
sS'_COUNTRY 94'
p2288
(dp2289
ssg296
(dp2290
g84
(dp2291
ssg298
(dp2292
g1628
(dp2293
ssg300
(dp2294
g1218
(dp2295
ssg302
(dp2296
sg304
(dp2297
g600
(dp2298
ssg306
(dp2299
sg308
(dp2300
g1376
(dp2301
ssg310
(dp2302
S'_LONGITUDE 89'
p2303
(dp2304
sS'_LONGITUDE 136'
p2305
(dp2306
sS'_LONGITUDE 56'
p2307
(dp2308
sS'_LONGITUDE 48'
p2309
(dp2310
ssg312
(dp2311
S'_LONGITUDE 89'
p2312
(dp2313
sS'_LONGITUDE 136'
p2314
(dp2315
sS'_LONGITUDE 56'
p2316
(dp2317
sS'_LONGITUDE 48'
p2318
(dp2319
ssg314
(dp2320
g1760
(dp2321
sg1364
(dp2322
sg558
(dp2323
sg252
(dp2324
sg1178
(dp2325
ssg316
(dp2326
g486
(dp2327
ssg318
(dp2328
sg320
(dp2329
g598
(dp2330
ssg322
(dp2331
sg324
(dp2332
g482
(dp2333
sg712
(dp2334
ssg326
(dp2335
sg328
(dp2336
sg330
(dp2337
sg332
(dp2338
g264
(dp2339
ssg334
(dp2340
g1124
(dp2341
ssg336
(dp2342
g1174
(dp2343
ssg338
(dp2344
g1410
(dp2345
sS'_ADDRESS 104'
p2346
(dp2347
sg942
(dp2348
sg1302
(dp2349
sg602
(dp2350
sg1146
(dp2351
ssg340
(dp2352
g1588
(dp2353
ssg342
(dp2354
g1396
(dp2355
ssg344
(dp2356
g874
(dp2357
ssg346
(dp2358
sg348
(dp2359
g1680
(dp2360
ssg350
(dp2361
sg352
(dp2362
g168
(dp2363
sg1288
(dp2364
ssg354
(dp2365
g1064
(dp2366
ssg356
(dp2367
S'_RECOMMENDEDPRICE 12'
p2368
(dp2369
ssg358
(dp2370
g1488
(dp2371
ssg360
(dp2372
g732
(dp2373
ssg362
(dp2374
g1218
(dp2375
ssg364
(dp2376
g1628
(dp2377
ssg366
(dp2378
sg368
(dp2379
g1686
(dp2380
ssg370
(dp2381
g1704
(dp2382
sg1520
(dp2383
ssg372
(dp2384
g150
(dp2385
ssg374
(dp2386
sg376
(dp2387
g600
(dp2388
ssg378
(dp2389
g962
(dp2390
ssg380
(dp2391
g1208
(dp2392
ssg382
(dp2393
g812
(dp2394
ssg384
(dp2395
sg386
(dp2396
g1174
(dp2397
ssg388
(dp2398
g1390
(dp2399
sg548
(dp2400
ssg390
(dp2401
g1006
(dp2402
ssg392
(dp2403
g1286
(dp2404
sg1486
(dp2405
sS'_PUBLICATION 70'
p2406
(dp2407
ssg394
(dp2408
g1666
(dp2409
ssg396
(dp2410
g1668
(dp2411
ssg398
(dp2412
sg400
(dp2413
g1068
(dp2414
ssg402
(dp2415
g162
(dp2416
sg350
(dp2417
ssg404
(dp2418
g1068
(dp2419
ssg406
(dp2420
g1024
(dp2421
ssg408
(dp2422
sg410
(dp2423
g708
(dp2424
ssg412
(dp2425
g686
(dp2426
sg1060
(dp2427
sg294
(dp2428
sg698
(dp2429
sg138
(dp2430
ssg414
(dp2431
sg416
(dp2432
S'_POSTALCODE 54'
p2433
(dp2434
sS'_POSTALCODE 100'
p2435
(dp2436
sS'_POSTALCODE 106'
p2437
(dp2438
ssg418
(dp2439
g1086
(dp2440
sg1552
(dp2441
ssg420
(dp2442
sg422
(dp2443
g254
(dp2444
ssg424
(dp2445
g298
(dp2446
ssg426
(dp2447
g300
(dp2448
ssg428
(dp2449
g390
(dp2450
ssg430
(dp2451
g1560
(dp2452
ssg432
(dp2453
sg434
(dp2454
g1792
(dp2455
sg1098
(dp2456
sg1058
(dp2457
ssg436
(dp2458
g58
(dp2459
ssg438
(dp2460
S'_LATITUDE 89'
p2461
(dp2462
sS'_LATITUDE 136'
p2463
(dp2464
sS'_LATITUDE 56'
p2465
(dp2466
sS'_LATITUDE 48'
p2467
(dp2468
ssg440
(dp2469
g1264
(dp2470
ssg442
(dp2471
sg444
(dp2472
g1532
(dp2473
ssg446
(dp2474
sg448
(dp2475
g792
(dp2476
sg726
(dp2477
ssg450
(dp2478
g452
(dp2479
ssg452
(dp2480
sg454
(dp2481
sg456
(dp2482
sg458
(dp2483
g1628
(dp2484
ssg460
(dp2485
g812
(dp2486
ssg462
(dp2487
g68
(dp2488
ssg464
(dp2489
g576
(dp2490
ssg466
(dp2491
g1396
(dp2492
ssg468
(dp2493
g1412
(dp2494
ssg470
(dp2495
sg472
(dp2496
g1216
(dp2497
sg256
(dp2498
ssg474
(dp2499
g24
(dp2500
ssg476
(dp2501
sg478
(dp2502
S'_LONGITUDE 89'
p2503
(dp2504
sS'_LONGITUDE 136'
p2505
(dp2506
sS'_LONGITUDE 56'
p2507
(dp2508
sS'_LONGITUDE 48'
p2509
(dp2510
ssg480
(dp2511
g1210
(dp2512
ssg482
(dp2513
sg484
(dp2514
g954
(dp2515
sg224
(dp2516
sg670
(dp2517
ssg486
(dp2518
sg488
(dp2519
g812
(dp2520
ssg490
(dp2521
g1152
(dp2522
ssg492
(dp2523
sg494
(dp2524
g854
(dp2525
ssg496
(dp2526
g526
(dp2527
ssg498
(dp2528
g1568
(dp2529
ssg500
(dp2530
sg502
(dp2531
g218
(dp2532
sg740
(dp2533
ssg504
(dp2534
g1316
(dp2535
sg1154
(dp2536
ssg506
(dp2537
g644
(dp2538
ssg508
(dp2539
sg510
(dp2540
sg512
(dp2541
g1546
(dp2542
sg1558
(dp2543
ssg514
(dp2544
g1776
(dp2545
ssg516
(dp2546
g1628
(dp2547
ssg518
(dp2548
g1218
(dp2549
ssg520
(dp2550
sg522
(dp2551
g448
(dp2552
ssg524
(dp2553
sg526
(dp2554
g134
(dp2555
ssg528
(dp2556
sg530
(dp2557
sg532
(dp2558
sg534
(dp2559
g276
(dp2560
ssg536
(dp2561
sg538
(dp2562
g590
(dp2563
ssg540
(dp2564
sg542
(dp2565
S'_ZIPCODE 113'
p2566
(dp2567
sS'_ZIPCODE 82'
p2568
(dp2569
sS'_ZIPCODE 44'
p2570
(dp2571
sS'_ZIPCODE 76'
p2572
(dp2573
sS'_ZIPCODE 130'
p2574
(dp2575
sS'_ZIPCODE 90'
p2576
(dp2577
ssg544
(dp2578
g390
(dp2579
ssg546
(dp2580
sg548
(dp2581
sg550
(dp2582
g1012
(dp2583
sg176
(dp2584
ssg552
(dp2585
g756
(dp2586
ssg554
(dp2587
g666
(dp2588
ssg556
(dp2589
g598
(dp2590
ssg558
(dp2591
S'_LONGITUDE 89'
p2592
(dp2593
sS'_LONGITUDE 136'
p2594
(dp2595
sS'_LONGITUDE 56'
p2596
(dp2597
sS'_LONGITUDE 48'
p2598
(dp2599
ssg560
(dp2600
g150
(dp2601
ssg562
(dp2602
S'_LONGITUDE 89'
p2603
(dp2604
sS'_LONGITUDE 136'
p2605
(dp2606
sS'_LONGITUDE 56'
p2607
(dp2608
sS'_LONGITUDE 48'
p2609
(dp2610
ssg564
(dp2611
sg566
(dp2612
g264
(dp2613
ssg568
(dp2614
g1202
(dp2615
ssg570
(dp2616
g756
(dp2617
ssg572
(dp2618
g1534
(dp2619
sg1618
(dp2620
sS'_PUBLICATION 70'
p2621
(dp2622
ssg574
(dp2623
S'_PERSON 3'
p2624
(dp2625
ssg576
(dp2626
g1320
(dp2627
ssg578
(dp2628
g1126
(dp2629
sg1712
(dp2630
sg1346
(dp2631
sg1014
(dp2632
ssg580
(dp2633
sg582
(dp2634
sg584
(dp2635
S'_CITY 58'
p2636
(dp2637
sS'_CITY 81'
p2638
(dp2639
sS'_CITY 29'
p2640
(dp2641
sS'_CITY 39'
p2642
(dp2643
sg682
(dp2644
sS'_CITY 35'
p2645
(dp2646
sS'_CITY 34'
p2647
(dp2648
sS'_CITY 33'
p2649
(dp2650
sS'_CITY 54'
p2651
(dp2652
sS'_CITY 9'
p2653
(dp2654
sS'_CITY 44'
p2655
(dp2656
sS'_CITY 45'
p2657
(dp2658
sS'_CITY 131'
p2659
(dp2660
sS'_CITY 65'
p2661
(dp2662
sS'_CITY 114'
p2663
(dp2664
sS'_CITY 107'
p2665
(dp2666
sS'_CITY 94'
p2667
(dp2668
sS'_CITY 104'
p2669
(dp2670
sS'_CITY 78'
p2671
(dp2672
sS'_CITY 103'
p2673
(dp2674
sS'_CITY 84'
p2675
(dp2676
ssg586
(dp2677
sg588
(dp2678
sg590
(dp2679
sg592
(dp2680
g1378
(dp2681
ssg594
(dp2682
g1628
(dp2683
ssg596
(dp2684
g1218
(dp2685
ssg598
(dp2686
g610
(dp2687
ssg600
(dp2688
g834
(dp2689
ssg602
(dp2690
sg604
(dp2691
sg606
(dp2692
sg608
(dp2693
sg610
(dp2694
sg612
(dp2695
g632
(dp2696
ssg614
(dp2697
S'_ZIPCODE 113'
p2698
(dp2699
sS'_ZIPCODE 82'
p2700
(dp2701
sS'_ZIPCODE 44'
p2702
(dp2703
sS'_ZIPCODE 76'
p2704
(dp2705
sS'_ZIPCODE 130'
p2706
(dp2707
sS'_ZIPCODE 90'
p2708
(dp2709
ssg616
(dp2710
sg618
(dp2711
g1532
(dp2712
ssg620
(dp2713
g1550
(dp2714
ssg622
(dp2715
g1748
(dp2716
ssg624
(dp2717
g1582
(dp2718
ssg626
(dp2719
g264
(dp2720
ssg628
(dp2721
g104
(dp2722
ssg630
(dp2723
g150
(dp2724
ssg632
(dp2725
S'_HOTEL 12'
p2726
(dp2727
ssg634
(dp2728
g1360
(dp2729
ssg636
(dp2730
g338
(dp2731
ssg638
(dp2732
sg640
(dp2733
g572
(dp2734
ssg642
(dp2735
g96
(dp2736
ssg644
(dp2737
g1450
(dp2738
ssg646
(dp2739
sg648
(dp2740
g280
(dp2741
ssg650
(dp2742
sg652
(dp2743
S'_RESEARCHER 101'
p2744
(dp2745
sS'_RESEARCHER 55'
p2746
(dp2747
ssg654
(dp2748
sg656
(dp2749
g666
(dp2750
ssg658
(dp2751
g784
(dp2752
ssg660
(dp2753
g538
(dp2754
ssg662
(dp2755
g106
(dp2756
ssg664
(dp2757
g272
(dp2758
ssg666
(dp2759
g1380
(dp2760
sg1708
(dp2761
ssg668
(dp2762
g788
(dp2763
ssg670
(dp2764
sg672
(dp2765
sg674
(dp2766
g1172
(dp2767
ssg676
(dp2768
sg678
(dp2769
S'_COUNTRY 31'
p2770
(dp2771
sS'_COUNTRY 94'
p2772
(dp2773
sg1774
(dp2774
sS'_COUNTRY 13'
p2775
(dp2776
sS'_COUNTRY 34'
p2777
(dp2778
sS'_COUNTRY 29'
p2779
(dp2780
sS'_COUNTRY 39'
p2781
(dp2782
sg650
(dp2783
sS'_COUNTRY 118'
p2784
(dp2785
sS'_COUNTRY 104'
p2786
(dp2787
sS'_COUNTRY 107'
p2788
(dp2789
sS'_COUNTRY 44'
p2790
(dp2791
sS'_COUNTRY 45'
p2792
(dp2793
sS'_COUNTRY 115'
p2794
(dp2795
sS'_COUNTRY 54'
p2796
(dp2797
sS'_COUNTRY 65'
p2798
(dp2799
sS'_COUNTRY 58'
p2800
(dp2801
sS'_COUNTRY 97'
p2802
(dp2803
sg432
(dp2804
ssg680
(dp2805
g1700
(dp2806
ssg682
(dp2807
sg684
(dp2808
g1716
(dp2809
ssg686
(dp2810
sg688
(dp2811
sg690
(dp2812
g732
(dp2813
ssg692
(dp2814
g1504
(dp2815
ssg694
(dp2816
sg696
(dp2817
S'_LATITUDE 89'
p2818
(dp2819
sS'_LATITUDE 136'
p2820
(dp2821
sS'_LATITUDE 56'
p2822
(dp2823
sS'_LATITUDE 48'
p2824
(dp2825
ssg698
(dp2826
sg700
(dp2827
g254
(dp2828
ssg702
(dp2829
g1352
(dp2830
ssg704
(dp2831
sg706
(dp2832
sg708
(dp2833
g214
(dp2834
sg262
(dp2835
ssg710
(dp2836
g1024
(dp2837
ssg712
(dp2838
sg714
(dp2839
g1788
(dp2840
ssg716
(dp2841
g1052
(dp2842
sS'_ADDRESS 114'
p2843
(dp2844
sg198
(dp2845
sg1070
(dp2846
sS'_ADDRESS 119'
p2847
(dp2848
sS'_ADDRESS 104'
p2849
(dp2850
sg704
(dp2851
sg1184
(dp2852
sS'_ADDRESS 139'
p2853
(dp2854
sg1416
(dp2855
sg1132
(dp2856
sS'_ADDRESS 45'
p2857
(dp2858
sS'_ADDRESS 19'
p2859
(dp2860
sS'_ADDRESS 44'
p2861
(dp2862
sg330
(dp2863
sg278
(dp2864
ssg718
(dp2865
g1250
(dp2866
ssg720
(dp2867
g1290
(dp2868
ssg722
(dp2869
sg724
(dp2870
g598
(dp2871
ssg726
(dp2872
sg728
(dp2873
g1218
(dp2874
ssg730
(dp2875
g1684
(dp2876
ssg732
(dp2877
g1260
(dp2878
ssg734
(dp2879
sg736
(dp2880
sg738
(dp2881
g674
(dp2882
ssg740
(dp2883
S'_LONGITUDE 89'
p2884
(dp2885
sS'_LONGITUDE 136'
p2886
(dp2887
sS'_LONGITUDE 56'
p2888
(dp2889
sS'_LONGITUDE 48'
p2890
(dp2891
ssg742
(dp2892
g1372
(dp2893
ssg744
(dp2894
g680
(dp2895
ssg746
(dp2896
sg748
(dp2897
g684
(dp2898
ssg750
(dp2899
g1452
(dp2900
sg546
(dp2901
ssg752
(dp2902
g1050
(dp2903
ssg754
(dp2904
g706
(dp2905
sg1634
(dp2906
ssg756
(dp2907
g1048
(dp2908
ssg758
(dp2909
sg760
(dp2910
g66
(dp2911
ssg762
(dp2912
g916
(dp2913
ssg764
(dp2914
g734
(dp2915
ssg766
(dp2916
g1488
(dp2917
ssg768
(dp2918
sg770
(dp2919
g1768
(dp2920
ssg772
(dp2921
sg774
(dp2922
g1676
(dp2923
ssg776
(dp2924
g1550
(dp2925
ssg778
(dp2926
g434
(dp2927
ssg780
(dp2928
sg782
(dp2929
sg784
(dp2930
g1388
(dp2931
ssg786
(dp2932
sg788
(dp2933
g306
(dp2934
sg800
(dp2935
ssg790
(dp2936
sg792
(dp2937
sg794
(dp2938
g254
(dp2939
ssg796
(dp2940
g854
(dp2941
ssg798
(dp2942
g654
(dp2943
sg920
(dp2944
sg20
(dp2945
ssg800
(dp2946
sg802
(dp2947
g1754
(dp2948
ssg804
(dp2949
g502
(dp2950
ssg806
(dp2951
g1174
(dp2952
ssg808
(dp2953
g812
(dp2954
ssg810
(dp2955
sg812
(dp2956
g532
(dp2957
ssg814
(dp2958
sg816
(dp2959
g418
(dp2960
ssg818
(dp2961
g652
(dp2962
ssg820
(dp2963
g1376
(dp2964
ssg822
(dp2965
g998
(dp2966
ssg824
(dp2967
g638
(dp2968
ssg826
(dp2969
g1582
(dp2970
ssg828
(dp2971
g746
(dp2972
sS'_BOOK 7'
p2973
(dp2974
sS'_BOOK 69'
p2975
(dp2976
sS'_BOOK 3'
p2977
(dp2978
sS'_BOOK 1'
p2979
(dp2980
sS'_BOOK 109'
p2981
(dp2982
sS'_BOOK 74'
p2983
(dp2984
sS'_BOOK 98'
p2985
(dp2986
ssg830
(dp2987
g874
(dp2988
ssg832
(dp2989
g434
(dp2990
ssg834
(dp2991
sg836
(dp2992
g1550
(dp2993
ssg838
(dp2994
g526
(dp2995
ssg840
(dp2996
g14
(dp2997
ssg842
(dp2998
sg844
(dp2999
g1748
(dp3000
ssg846
(dp3001
sg848
(dp3002
g674
(dp3003
ssg850
(dp3004
sg852
(dp3005
g680
(dp3006
ssg854
(dp3007
g500
(dp3008
ssg856
(dp3009
g898
(dp3010
ssg858
(dp3011
g684
(dp3012
ssg860
(dp3013
g66
(dp3014
ssg862
(dp3015
sg864
(dp3016
sg866
(dp3017
g90
(dp3018
ssg868
(dp3019
g1102
(dp3020
ssg870
(dp3021
S'_COUNTRY 31'
p3022
(dp3023
sS'_COUNTRY 13'
p3024
(dp3025
sS'_COUNTRY 34'
p3026
(dp3027
sg1054
(dp3028
sS'_COUNTRY 29'
p3029
(dp3030
sS'_COUNTRY 39'
p3031
(dp3032
sS'_COUNTRY 118'
p3033
(dp3034
sS'_COUNTRY 44'
p3035
(dp3036
sS'_COUNTRY 107'
p3037
(dp3038
sS'_COUNTRY 104'
p3039
(dp3040
sg212
(dp3041
sS'_COUNTRY 45'
p3042
(dp3043
sS'_COUNTRY 115'
p3044
(dp3045
sS'_COUNTRY 54'
p3046
(dp3047
sS'_COUNTRY 65'
p3048
(dp3049
sS'_COUNTRY 58'
p3050
(dp3051
sS'_COUNTRY 97'
p3052
(dp3053
sg220
(dp3054
sS'_COUNTRY 94'
p3055
(dp3056
ssg872
(dp3057
sg874
(dp3058
g326
(dp3059
ssg876
(dp3060
g998
(dp3061
ssg878
(dp3062
g314
(dp3063
ssg880
(dp3064
g782
(dp3065
sg1670
(dp3066
ssg882
(dp3067
g338
(dp3068
ssg884
(dp3069
g96
(dp3070
ssg886
(dp3071
g150
(dp3072
ssg888
(dp3073
g38
(dp3074
sg1022
(dp3075
ssg890
(dp3076
g188
(dp3077
sg1722
(dp3078
ssg892
(dp3079
g1152
(dp3080
ssg894
(dp3081
g1352
(dp3082
ssg896
(dp3083
sg898
(dp3084
g74
(dp3085
sg398
(dp3086
sg476
(dp3087
sg1382
(dp3088
ssg900
(dp3089
g420
(dp3090
ssg902
(dp3091
g120
(dp3092
ssg904
(dp3093
sg906
(dp3094
sg908
(dp3095
g112
(dp3096
ssg910
(dp3097
g616
(dp3098
ssg912
(dp3099
g684
(dp3100
ssg914
(dp3101
g1152
(dp3102
ssg916
(dp3103
S'_PROFESSOR-IN-ACADEMIA 85'
p3104
(dp3105
ssg918
(dp3106
g1044
(dp3107
ssg920
(dp3108
sg922
(dp3109
sg924
(dp3110
g1482
(dp3111
ssg926
(dp3112
g674
(dp3113
ssg928
(dp3114
g768
(dp3115
ssg930
(dp3116
sg932
(dp3117
g680
(dp3118
ssg934
(dp3119
sg936
(dp3120
g1402
(dp3121
ssg938
(dp3122
g924
(dp3123
ssg940
(dp3124
g1676
(dp3125
ssg942
(dp3126
sg944
(dp3127
g928
(dp3128
ssg946
(dp3129
sg948
(dp3130
g960
(dp3131
ssg950
(dp3132
g1290
(dp3133
ssg952
(dp3134
g1442
(dp3135
ssg954
(dp3136
sg956
(dp3137
sg958
(dp3138
sg960
(dp3139
g716
(dp3140
ssg962
(dp3141
g754
(dp3142
ssg964
(dp3143
g784
(dp3144
ssg966
(dp3145
sg968
(dp3146
g1332
(dp3147
sg302
(dp3148
ssg970
(dp3149
g100
(dp3150
ssg972
(dp3151
S'_LATITUDE 89'
p3152
(dp3153
sS'_LATITUDE 136'
p3154
(dp3155
sS'_LATITUDE 56'
p3156
(dp3157
sS'_LATITUDE 48'
p3158
(dp3159
ssg974
(dp3160
S'_LATITUDE 89'
p3161
(dp3162
sS'_LATITUDE 136'
p3163
(dp3164
sS'_LATITUDE 56'
p3165
(dp3166
sS'_LATITUDE 48'
p3167
(dp3168
ssg976
(dp3169
g434
(dp3170
ssg978
(dp3171
g448
(dp3172
ssg980
(dp3173
sg982
(dp3174
S'_AUTHOR 64'
p3175
(dp3176
sS'_AUTHOR 68'
p3177
(dp3178
ssg984
(dp3179
g100
(dp3180
ssg986
(dp3181
sg988
(dp3182
g600
(dp3183
ssg990
(dp3184
g100
(dp3185
ssg992
(dp3186
g1190
(dp3187
ssg994
(dp3188
g390
(dp3189
ssg996
(dp3190
sg998
(dp3191
g542
(dp3192
sg148
(dp3193
ssg1000
(dp3194
g678
(dp3195
sg416
(dp3196
sg1500
(dp3197
sg528
(dp3198
sg1306
(dp3199
ssg1002
(dp3200
g172
(dp3201
ssg1004
(dp3202
g1310
(dp3203
ssg1006
(dp3204
sg1008
(dp3205
g756
(dp3206
ssg1010
(dp3207
g752
(dp3208
ssg1012
(dp3209
sg1014
(dp3210
sg1016
(dp3211
g388
(dp3212
ssg1018
(dp3213
g1646
(dp3214
ssg1020
(dp3215
g534
(dp3216
ssg1022
(dp3217
sg1024
(dp3218
g930
(dp3219
ssg1026
(dp3220
sg1028
(dp3221
g412
(dp3222
ssg1030
(dp3223
g1516
(dp3224
sg1440
(dp3225
ssg1032
(dp3226
g1666
(dp3227
ssg1034
(dp3228
g102
(dp3229
ssg1036
(dp3230
g636
(dp3231
ssg1038
(dp3232
S'_LONGITUDE 89'
p3233
(dp3234
sS'_LONGITUDE 136'
p3235
(dp3236
sS'_LONGITUDE 56'
p3237
(dp3238
sS'_LONGITUDE 48'
p3239
(dp3240
ssg1040
(dp3241
g496
(dp3242
ssg1042
(dp3243
g540
(dp3244
sS'_BOOK 7'
p3245
(dp3246
sS'_BOOK 69'
p3247
(dp3248
sS'_BOOK 3'
p3249
(dp3250
sS'_BOOK 1'
p3251
(dp3252
sS'_BOOK 109'
p3253
(dp3254
sS'_BOOK 74'
p3255
(dp3256
sS'_BOOK 98'
p3257
(dp3258
ssg1044
(dp3259
g122
(dp3260
sg1528
(dp3261
ssg1046
(dp3262
S'_LONGITUDE 89'
p3263
(dp3264
sS'_LONGITUDE 136'
p3265
(dp3266
sS'_LONGITUDE 56'
p3267
(dp3268
sS'_LONGITUDE 48'
p3269
(dp3270
ssg1048
(dp3271
g126
(dp3272
sg1544
(dp3273
ssg1050
(dp3274
g130
(dp3275
sg1542
(dp3276
ssg1052
(dp3277
sg1054
(dp3278
sg1056
(dp3279
g908
(dp3280
ssg1058
(dp3281
S'_LATITUDE 89'
p3282
(dp3283
sS'_LATITUDE 136'
p3284
(dp3285
sS'_LATITUDE 56'
p3286
(dp3287
sS'_LATITUDE 48'
p3288
(dp3289
ssg1060
(dp3290
g586
(dp3291
sg208
(dp3292
ssg1062
(dp3293
g1706
(dp3294
sg676
(dp3295
sS'_PUBLICATION 70'
p3296
(dp3297
ssg1064
(dp3298
g758
(dp3299
sg1214
(dp3300
sg606
(dp3301
ssg1066
(dp3302
g1232
(dp3303
ssg1068
(dp3304
g1362
(dp3305
ssg1070
(dp3306
sg1072
(dp3307
g356
(dp3308
sg1062
(dp3309
ssg1074
(dp3310
sg1076
(dp3311
S'_LATITUDE 89'
p3312
(dp3313
sS'_LATITUDE 136'
p3314
(dp3315
sS'_LATITUDE 56'
p3316
(dp3317
sS'_LATITUDE 48'
p3318
(dp3319
ssg1078
(dp3320
g918
(dp3321
ssg1080
(dp3322
g1754
(dp3323
ssg1082
(dp3324
g1396
(dp3325
ssg1084
(dp3326
g254
(dp3327
ssg1086
(dp3328
sg1088
(dp3329
g90
(dp3330
ssg1090
(dp3331
g538
(dp3332
ssg1092
(dp3333
g272
(dp3334
ssg1094
(dp3335
g448
(dp3336
ssg1096
(dp3337
g838
(dp3338
ssg1098
(dp3339
S'_LONGITUDE 89'
p3340
(dp3341
sS'_LONGITUDE 136'
p3342
(dp3343
sS'_LONGITUDE 56'
p3344
(dp3345
sS'_LONGITUDE 48'
p3346
(dp3347
ssg1100
(dp3348
g872
(dp3349
sg850
(dp3350
sg1148
(dp3351
sg22
(dp3352
sg1256
(dp3353
sg1620
(dp3354
sg688
(dp3355
sg1800
(dp3356
ssg1102
(dp3357
g136
(dp3358
ssg1104
(dp3359
g34
(dp3360
ssg1106
(dp3361
g90
(dp3362
ssg1108
(dp3363
S'_LATITUDE 89'
p3364
(dp3365
sS'_LATITUDE 136'
p3366
(dp3367
sS'_LATITUDE 56'
p3368
(dp3369
sS'_LATITUDE 48'
p3370
(dp3371
ssg1110
(dp3372
sg1112
(dp3373
g36
(dp3374
sg1556
(dp3375
ssg1114
(dp3376
g770
(dp3377
ssg1116
(dp3378
g90
(dp3379
ssg1118
(dp3380
g1784
(dp3381
ssg1120
(dp3382
S'_AUTHOR 64'
p3383
(dp3384
sS'_AUTHOR 68'
p3385
(dp3386
ssg1122
(dp3387
sg1124
(dp3388
g530
(dp3389
sg28
(dp3390
ssg1126
(dp3391
sg1128
(dp3392
g662
(dp3393
ssg1130
(dp3394
g1204
(dp3395
ssg1132
(dp3396
sg1134
(dp3397
sg1136
(dp3398
g798
(dp3399
ssg1138
(dp3400
g1650
(dp3401
sg478
(dp3402
sg696
(dp3403
ssg1140
(dp3404
sg1142
(dp3405
g662
(dp3406
ssg1144
(dp3407
g1290
(dp3408
ssg1146
(dp3409
sg1148
(dp3410
sg1150
(dp3411
sg1152
(dp3412
g502
(dp3413
ssg1154
(dp3414
S'_AUTHOR 64'
p3415
(dp3416
sS'_AUTHOR 68'
p3417
(dp3418
ssg1156
(dp3419
g1328
(dp3420
sg1564
(dp3421
ssg1158
(dp3422
g576
(dp3423
ssg1160
(dp3424
g484
(dp3425
ssg1162
(dp3426
g1488
(dp3427
ssg1164
(dp3428
S'_AUTHOR 64'
p3429
(dp3430
sS'_AUTHOR 68'
p3431
(dp3432
ssg1166
(dp3433
g1594
(dp3434
sg392
(dp3435
ssg1168
(dp3436
sg1170
(dp3437
g1000
(dp3438
ssg1172
(dp3439
g1718
(dp3440
ssg1174
(dp3441
g996
(dp3442
sg1026
(dp3443
ssg1176
(dp3444
sg1178
(dp3445
sg1180
(dp3446
g598
(dp3447
ssg1182
(dp3448
g156
(dp3449
ssg1184
(dp3450
sg1186
(dp3451
g18
(dp3452
ssg1188
(dp3453
g578
(dp3454
ssg1190
(dp3455
S'_FOOD 22'
p3456
(dp3457
sS'_FOOD 63'
p3458
(dp3459
sS'_FOOD 8'
p3460
(dp3461
ssg1192
(dp3462
g868
(dp3463
ssg1194
(dp3464
g1378
(dp3465
ssg1196
(dp3466
S'_COFFEE 112'
p3467
(dp3468
ssg1198
(dp3469
g838
(dp3470
ssg1200
(dp3471
g216
(dp3472
ssg1202
(dp3473
g454
(dp3474
ssg1204
(dp3475
g1604
(dp3476
ssg1206
(dp3477
sg1208
(dp3478
g818
(dp3479
ssg1210
(dp3480
g1524
(dp3481
sg550
(dp3482
ssg1212
(dp3483
g812
(dp3484
ssg1214
(dp3485
sg1216
(dp3486
sg1218
(dp3487
g972
(dp3488
sg384
(dp3489
sg1750
(dp3490
sg508
(dp3491
sg1658
(dp3492
sg310
(dp3493
ssg1220
(dp3494
g1780
(dp3495
ssg1222
(dp3496
S'_COUNTRY 31'
p3497
(dp3498
sS'_COUNTRY 13'
p3499
(dp3500
sS'_COUNTRY 34'
p3501
(dp3502
sS'_COUNTRY 29'
p3503
(dp3504
sS'_COUNTRY 39'
p3505
(dp3506
sS'_COUNTRY 118'
p3507
(dp3508
sS'_COUNTRY 104'
p3509
(dp3510
sS'_COUNTRY 107'
p3511
(dp3512
sS'_COUNTRY 44'
p3513
(dp3514
sS'_COUNTRY 45'
p3515
(dp3516
sS'_COUNTRY 115'
p3517
(dp3518
sS'_COUNTRY 54'
p3519
(dp3520
sS'_COUNTRY 65'
p3521
(dp3522
sg1258
(dp3523
sS'_COUNTRY 58'
p3524
(dp3525
sS'_COUNTRY 97'
p3526
(dp3527
sg1324
(dp3528
sg374
(dp3529
sS'_COUNTRY 94'
p3530
(dp3531
ssg1224
(dp3532
sg1226
(dp3533
sg1228
(dp3534
g264
(dp3535
ssg1230
(dp3536
g1002
(dp3537
ssg1232
(dp3538
sg1234
(dp3539
g1010
(dp3540
ssg1236
(dp3541
g1666
(dp3542
ssg1238
(dp3543
g1008
(dp3544
ssg1240
(dp3545
g1502
(dp3546
ssg1242
(dp3547
g280
(dp3548
ssg1244
(dp3549
g1376
(dp3550
ssg1246
(dp3551
g484
(dp3552
ssg1248
(dp3553
g1666
(dp3554
ssg1250
(dp3555
g62
(dp3556
sg1798
(dp3557
sg470
(dp3558
ssg1252
(dp3559
g1762
(dp3560
ssg1254
(dp3561
sg1256
(dp3562
sg1258
(dp3563
sg1260
(dp3564
sg1262
(dp3565
sg1264
(dp3566
sg1266
(dp3567
g750
(dp3568
ssg1268
(dp3569
S'_LATITUDE 89'
p3570
(dp3571
sS'_LATITUDE 136'
p3572
(dp3573
sS'_LATITUDE 56'
p3574
(dp3575
sS'_LATITUDE 48'
p3576
(dp3577
ssg1270
(dp3578
g18
(dp3579
ssg1272
(dp3580
g1024
(dp3581
ssg1274
(dp3582
g502
(dp3583
ssg1276
(dp3584
g1280
(dp3585
sg1120
(dp3586
ssg1278
(dp3587
g770
(dp3588
ssg1280
(dp3589
g492
(dp3590
sg580
(dp3591
sS'_PUBLICATION 70'
p3592
(dp3593
ssg1282
(dp3594
sg1284
(dp3595
g90
(dp3596
ssg1286
(dp3597
sg1288
(dp3598
sg1290
(dp3599
g1702
(dp3600
sg50
(dp3601
ssg1292
(dp3602
S'_LATITUDE 89'
p3603
(dp3604
sS'_LATITUDE 136'
p3605
(dp3606
sS'_LATITUDE 56'
p3607
(dp3608
sS'_LATITUDE 48'
p3609
(dp3610
ssg1294
(dp3611
g898
(dp3612
ssg1296
(dp3613
S'_LATITUDE 89'
p3614
(dp3615
sS'_LATITUDE 136'
p3616
(dp3617
sS'_LATITUDE 56'
p3618
(dp3619
sS'_LATITUDE 48'
p3620
(dp3621
ssg1298
(dp3622
g982
(dp3623
ssg1300
(dp3624
g640
(dp3625
ssg1302
(dp3626
S'_LATITUDE 89'
p3627
(dp3628
sS'_LATITUDE 136'
p3629
(dp3630
sS'_LATITUDE 56'
p3631
(dp3632
sS'_LATITUDE 48'
p3633
(dp3634
ssg1304
(dp3635
S'hasAccommodation 65'
p3636
(dp3637
sS'hasAccommodation 94'
p3638
(dp3639
sS'hasAccommodation 39'
p3640
(dp3641
sS'hasAccommodation 58'
p3642
(dp3643
ssg1306
(dp3644
S'_STATE 29'
p3645
(dp3646
sS'_STATE 103'
p3647
(dp3648
sS'_STATE 9'
p3649
(dp3650
sS'_STATE 104'
p3651
(dp3652
sS'_STATE 107'
p3653
(dp3654
sS'_STATE 54'
p3655
(dp3656
sS'_STATE 114'
p3657
(dp3658
sS'_STATE 45'
p3659
(dp3660
sS'_STATE 44'
p3661
(dp3662
sS'_STATE 81'
p3663
(dp3664
ssg1308
(dp3665
g280
(dp3666
ssg1310
(dp3667
g1042
(dp3668
sg1164
(dp3669
ssg1312
(dp3670
g598
(dp3671
ssg1314
(dp3672
g314
(dp3673
ssg1316
(dp3674
g246
(dp3675
sg1134
(dp3676
ssg1318
(dp3677
g280
(dp3678
ssg1320
(dp3679
g196
(dp3680
ssg1322
(dp3681
g646
(dp3682
sg1398
(dp3683
ssg1324
(dp3684
sg1326
(dp3685
g104
(dp3686
ssg1328
(dp3687
g1140
(dp3688
sg250
(dp3689
ssg1330
(dp3690
g354
(dp3691
ssg1332
(dp3692
sg1334
(dp3693
g578
(dp3694
ssg1336
(dp3695
S'_HOTEL 12'
p3696
(dp3697
ssg1338
(dp3698
sg1340
(dp3699
sg1342
(dp3700
S'_HOTEL 12'
p3701
(dp3702
ssg1344
(dp3703
g238
(dp3704
ssg1346
(dp3705
sg1348
(dp3706
g874
(dp3707
ssg1350
(dp3708
sg1352
(dp3709
g338
(dp3710
ssg1354
(dp3711
g272
(dp3712
ssg1356
(dp3713
g1628
(dp3714
ssg1358
(dp3715
g1666
(dp3716
ssg1360
(dp3717
g80
(dp3718
ssg1362
(dp3719
sg1364
(dp3720
sg1366
(dp3721
g1490
(dp3722
sg786
(dp3723
ssg1368
(dp3724
g90
(dp3725
ssg1370
(dp3726
g370
(dp3727
ssg1372
(dp3728
g1100
(dp3729
sg986
(dp3730
ssg1374
(dp3731
sg1376
(dp3732
g1422
(dp3733
ssg1378
(dp3734
g754
(dp3735
ssg1380
(dp3736
sg1382
(dp3737
S'_STATE 29'
p3738
(dp3739
sS'_STATE 103'
p3740
(dp3741
sS'_STATE 9'
p3742
(dp3743
sS'_STATE 104'
p3744
(dp3745
sS'_STATE 107'
p3746
(dp3747
sS'_STATE 54'
p3748
(dp3749
sS'_STATE 114'
p3750
(dp3751
sS'_STATE 45'
p3752
(dp3753
sS'_STATE 44'
p3754
(dp3755
sS'_STATE 81'
p3756
(dp3757
ssg1384
(dp3758
g598
(dp3759
ssg1386
(dp3760
g412
(dp3761
ssg1388
(dp3762
sg1390
(dp3763
sg1392
(dp3764
g900
(dp3765
ssg1394
(dp3766
g1676
(dp3767
ssg1396
(dp3768
g1714
(dp3769
ssg1398
(dp3770
g956
(dp3771
sg270
(dp3772
ssg1400
(dp3773
g1056
(dp3774
ssg1402
(dp3775
S'_HOTEL 12'
p3776
(dp3777
ssg1404
(dp3778
sg1406
(dp3779
g264
(dp3780
ssg1408
(dp3781
g998
(dp3782
ssg1410
(dp3783
S'_LONGITUDE 89'
p3784
(dp3785
sS'_LONGITUDE 136'
p3786
(dp3787
sS'_LONGITUDE 56'
p3788
(dp3789
sS'_LONGITUDE 48'
p3790
(dp3791
ssg1412
(dp3792
g408
(dp3793
sg1540
(dp3794
ssg1414
(dp3795
g150
(dp3796
ssg1416
(dp3797
sg1418
(dp3798
g282
(dp3799
ssg1420
(dp3800
S'_STATE 29'
p3801
(dp3802
sS'_STATE 103'
p3803
(dp3804
sS'_STATE 9'
p3805
(dp3806
sS'_STATE 104'
p3807
(dp3808
sS'_STATE 107'
p3809
(dp3810
sS'_STATE 54'
p3811
(dp3812
sS'_STATE 114'
p3813
(dp3814
sS'_STATE 45'
p3815
(dp3816
sS'_STATE 44'
p3817
(dp3818
sS'_STATE 81'
p3819
(dp3820
ssg1422
(dp3821
sg1424
(dp3822
S'_LONGITUDE 89'
p3823
(dp3824
sS'_LONGITUDE 136'
p3825
(dp3826
sS'_LONGITUDE 56'
p3827
(dp3828
sS'_LONGITUDE 48'
p3829
(dp3830
ssg1426
(dp3831
g1568
(dp3832
ssg1428
(dp3833
g1488
(dp3834
ssg1430
(dp3835
g732
(dp3836
ssg1432
(dp3837
sg1434
(dp3838
g1568
(dp3839
ssg1436
(dp3840
g96
(dp3841
ssg1438
(dp3842
g338
(dp3843
ssg1440
(dp3844
sg1442
(dp3845
sg1444
(dp3846
g354
(dp3847
ssg1446
(dp3848
sg1448
(dp3849
g1072
(dp3850
ssg1450
(dp3851
g1374
(dp3852
ssg1452
(dp3853
S'_FOOD 22'
p3854
(dp3855
sS'_FOOD 63'
p3856
(dp3857
sS'_FOOD 8'
p3858
(dp3859
ssg1454
(dp3860
g254
(dp3861
ssg1456
(dp3862
g1156
(dp3863
ssg1458
(dp3864
S'_AUTHOR 64'
p3865
(dp3866
sS'_AUTHOR 68'
p3867
(dp3868
ssg1460
(dp3869
g1676
(dp3870
ssg1462
(dp3871
g900
(dp3872
ssg1464
(dp3873
g1276
(dp3874
ssg1466
(dp3875
g264
(dp3876
ssg1468
(dp3877
S'_LONGITUDE 89'
p3878
(dp3879
sS'_LONGITUDE 136'
p3880
(dp3881
sS'_LONGITUDE 56'
p3882
(dp3883
sS'_LONGITUDE 48'
p3884
(dp3885
ssg1470
(dp3886
sg1472
(dp3887
g598
(dp3888
ssg1474
(dp3889
sg1476
(dp3890
g596
(dp3891
ssg1478
(dp3892
g594
(dp3893
ssg1480
(dp3894
g1080
(dp3895
ssg1482
(dp3896
S'_ZIPCODE 113'
p3897
(dp3898
sS'_ZIPCODE 82'
p3899
(dp3900
sS'_ZIPCODE 44'
p3901
(dp3902
sS'_ZIPCODE 76'
p3903
(dp3904
sS'_ZIPCODE 130'
p3905
(dp3906
sS'_ZIPCODE 90'
p3907
(dp3908
ssg1484
(dp3909
g998
(dp3910
ssg1486
(dp3911
sg1488
(dp3912
g1262
(dp3913
ssg1490
(dp3914
sg1492
(dp3915
g594
(dp3916
ssg1494
(dp3917
g596
(dp3918
ssg1496
(dp3919
g594
(dp3920
ssg1498
(dp3921
g1796
(dp3922
ssg1500
(dp3923
S'hasAirport 35'
p3924
(dp3925
ssg1502
(dp3926
g1350
(dp3927
ssg1504
(dp3928
g1608
(dp3929
ssg1506
(dp3930
g874
(dp3931
ssg1508
(dp3932
g1068
(dp3933
ssg1510
(dp3934
g216
(dp3935
ssg1512
(dp3936
g1174
(dp3937
ssg1514
(dp3938
g216
(dp3939
ssg1516
(dp3940
sg1518
(dp3941
g72
(dp3942
sg346
(dp3943
ssg1520
(dp3944
sg1522
(dp3945
g890
(dp3946
ssg1524
(dp3947
sg1526
(dp3948
sg1528
(dp3949
sg1530
(dp3950
g1344
(dp3951
ssg1532
(dp3952
g1716
(dp3953
ssg1534
(dp3954
sg1536
(dp3955
g184
(dp3956
ssg1538
(dp3957
g1662
(dp3958
ssg1540
(dp3959
sg1542
(dp3960
sg1544
(dp3961
sg1546
(dp3962
sg1548
(dp3963
g1056
(dp3964
ssg1550
(dp3965
g504
(dp3966
ssg1552
(dp3967
sg1554
(dp3968
g18
(dp3969
ssg1556
(dp3970
g934
(dp3971
sg446
(dp3972
ssg1558
(dp3973
sg1560
(dp3974
S'_BOOK 109'
p3975
(dp3976
sg608
(dp3977
sS'_BOOK 7'
p3978
(dp3979
sS'_BOOK 69'
p3980
(dp3981
sS'_BOOK 3'
p3982
(dp3983
sS'_BOOK 1'
p3984
(dp3985
sS'_BOOK 74'
p3986
(dp3987
sg810
(dp3988
sS'_BOOK 98'
p3989
(dp3990
sg846
(dp3991
ssg1562
(dp3992
g1144
(dp3993
ssg1564
(dp3994
g604
(dp3995
sS'_BOOK 98'
p3996
(dp3997
sS'_BOOK 7'
p3998
(dp3999
sS'_BOOK 69'
p4000
(dp4001
sS'_BOOK 3'
p4002
(dp4003
sS'_BOOK 1'
p4004
(dp4005
sS'_BOOK 109'
p4006
(dp4007
sS'_BOOK 74'
p4008
(dp4009
sg842
(dp4010
sg166
(dp4011
ssg1566
(dp4012
g1648
(dp4013
ssg1568
(dp4014
g1622
(dp4015
ssg1570
(dp4016
g642
(dp4017
ssg1572
(dp4018
g436
(dp4019
ssg1574
(dp4020
g1138
(dp4021
ssg1576
(dp4022
g64
(dp4023
ssg1578
(dp4024
S'_CITY 58'
p4025
(dp4026
sS'_CITY 81'
p4027
(dp4028
sS'_CITY 29'
p4029
(dp4030
sS'_CITY 39'
p4031
(dp4032
sS'_CITY 114'
p4033
(dp4034
sS'_CITY 35'
p4035
(dp4036
sS'_CITY 34'
p4037
(dp4038
sS'_CITY 33'
p4039
(dp4040
sg904
(dp4041
sS'_CITY 54'
p4042
(dp4043
sS'_CITY 9'
p4044
(dp4045
sS'_CITY 44'
p4046
(dp4047
sS'_CITY 45'
p4048
(dp4049
sS'_CITY 131'
p4050
(dp4051
sS'_CITY 65'
p4052
(dp4053
sS'_CITY 107'
p4054
(dp4055
sS'_CITY 94'
p4056
(dp4057
sS'_CITY 104'
p4058
(dp4059
sS'_CITY 78'
p4060
(dp4061
sS'_CITY 103'
p4062
(dp4063
sS'_CITY 84'
p4064
(dp4065
ssg1580
(dp4066
g1056
(dp4067
ssg1582
(dp4068
g1046
(dp4069
sg1404
(dp4070
sg1076
(dp4071
ssg1584
(dp4072
g1676
(dp4073
ssg1586
(dp4074
g1770
(dp4075
ssg1588
(dp4076
g1206
(dp4077
sg536
(dp4078
ssg1590
(dp4079
g944
(dp4080
ssg1592
(dp4081
g78
(dp4082
ssg1594
(dp4083
S'_AUTHOR 64'
p4084
(dp4085
sS'_AUTHOR 68'
p4086
(dp4087
ssg1596
(dp4088
g874
(dp4089
ssg1598
(dp4090
g512
(dp4091
ssg1600
(dp4092
g1166
(dp4093
ssg1602
(dp4094
g1270
(dp4095
ssg1604
(dp4096
sg1606
(dp4097
g538
(dp4098
ssg1608
(dp4099
S'_FOOD 22'
p4100
(dp4101
sS'_FOOD 63'
p4102
(dp4103
sS'_FOOD 8'
p4104
(dp4105
ssg1610
(dp4106
g206
(dp4107
sg1446
(dp4108
ssg1612
(dp4109
g314
(dp4110
ssg1614
(dp4111
g1322
(dp4112
ssg1616
(dp4113
sg1618
(dp4114
sg1620
(dp4115
sg1622
(dp4116
sg1624
(dp4117
g822
(dp4118
ssg1626
(dp4119
g474
(dp4120
ssg1628
(dp4121
g974
(dp4122
sg312
(dp4123
sg864
(dp4124
ssg1630
(dp4125
g906
(dp4126
sS'_CITY 29'
p4127
(dp4128
sS'_CITY 44'
p4129
(dp4130
sS'_CITY 45'
p4131
(dp4132
sS'_CITY 65'
p4133
(dp4134
sS'_CITY 107'
p4135
(dp4136
sS'_CITY 104'
p4137
(dp4138
sS'_CITY 81'
p4139
(dp4140
sS'_CITY 103'
p4141
(dp4142
sS'_CITY 84'
p4143
(dp4144
sS'_CITY 9'
p4145
(dp4146
sS'_CITY 94'
p4147
(dp4148
sS'_CITY 58'
p4149
(dp4150
sS'_CITY 39'
p4151
(dp4152
sS'_CITY 35'
p4153
(dp4154
sS'_CITY 34'
p4155
(dp4156
sS'_CITY 33'
p4157
(dp4158
sS'_CITY 54'
p4159
(dp4160
sS'_CITY 131'
p4161
(dp4162
sg896
(dp4163
sS'_CITY 114'
p4164
(dp4165
sS'_CITY 78'
p4166
(dp4167
ssg1632
(dp4168
g1666
(dp4169
ssg1634
(dp4170
S'_HOTEL 12'
p4171
(dp4172
ssg1636
(dp4173
g962
(dp4174
ssg1638
(dp4175
g784
(dp4176
ssg1640
(dp4177
g1174
(dp4178
ssg1642
(dp4179
g578
(dp4180
ssg1644
(dp4181
g854
(dp4182
ssg1646
(dp4183
g1518
(dp4184
ssg1648
(dp4185
g1110
(dp4186
ssg1650
(dp4187
sg1652
(dp4188
g68
(dp4189
ssg1654
(dp4190
g1270
(dp4191
ssg1656
(dp4192
g1066
(dp4193
ssg1658
(dp4194
S'_POSTALCODE 54'
p4195
(dp4196
sS'_POSTALCODE 100'
p4197
(dp4198
sS'_POSTALCODE 106'
p4199
(dp4200
ssg1660
(dp4201
sg1662
(dp4202
g936
(dp4203
ssg1664
(dp4204
g812
(dp4205
ssg1666
(dp4206
g966
(dp4207
ssg1668
(dp4208
g1470
(dp4209
ssg1670
(dp4210
S'_FOOD 22'
p4211
(dp4212
sS'_FOOD 63'
p4213
(dp4214
sS'_FOOD 8'
p4215
(dp4216
ssg1672
(dp4217
g524
(dp4218
ssg1674
(dp4219
g1662
(dp4220
ssg1676
(dp4221
g158
(dp4222
ssg1678
(dp4223
g578
(dp4224
ssg1680
(dp4225
g1778
(dp4226
ssg1682
(dp4227
g434
(dp4228
ssg1684
(dp4229
g164
(dp4230
ssg1686
(dp4231
g14
(dp4232
ssg1688
(dp4233
g778
(dp4234
ssg1690
(dp4235
g784
(dp4236
ssg1692
(dp4237
g254
(dp4238
ssg1694
(dp4239
g316
(dp4240
ssg1696
(dp4241
g596
(dp4242
ssg1698
(dp4243
g578
(dp4244
ssg1700
(dp4245
g1342
(dp4246
ssg1702
(dp4247
S'_LATITUDE 89'
p4248
(dp4249
sS'_LATITUDE 136'
p4250
(dp4251
sS'_LATITUDE 56'
p4252
(dp4253
sS'_LATITUDE 48'
p4254
(dp4255
ssg1704
(dp4256
sg1706
(dp4257
sg1708
(dp4258
S'_COFFEE 112'
p4259
(dp4260
ssg1710
(dp4261
g784
(dp4262
ssg1712
(dp4263
sg1714
(dp4264
S'_POSTALCODE 54'
p4265
(dp4266
sS'_POSTALCODE 100'
p4267
(dp4268
sS'_POSTALCODE 106'
p4269
(dp4270
ssg1716
(dp4271
g1336
(dp4272
ssg1718
(dp4273
sg1720
(dp4274
g598
(dp4275
ssg1722
(dp4276
sg1724
(dp4277
g1274
(dp4278
ssg1726
(dp4279
g284
(dp4280
ssg1728
(dp4281
g1666
(dp4282
ssg1730
(dp4283
g430
(dp4284
ssg1732
(dp4285
g1010
(dp4286
ssg1734
(dp4287
g1008
(dp4288
ssg1736
(dp4289
g1208
(dp4290
ssg1738
(dp4291
sg1740
(dp4292
g660
(dp4293
sg1606
(dp4294
ssg1742
(dp4295
g1002
(dp4296
ssg1744
(dp4297
g1396
(dp4298
ssg1746
(dp4299
sg1748
(dp4300
g10
(dp4301
sg584
(dp4302
sg1222
(dp4303
ssg1750
(dp4304
S'_COUNTY 44'
p4305
(dp4306
ssg1752
(dp4307
g1628
(dp4308
ssg1754
(dp4309
g614
(dp4310
sg290
(dp4311
sg438
(dp4312
sg1764
(dp4313
ssg1756
(dp4314
g1138
(dp4315
ssg1758
(dp4316
sg1760
(dp4317
sg1762
(dp4318
g402
(dp4319
ssg1764
(dp4320
S'_LONGITUDE 89'
p4321
(dp4322
sS'_LONGITUDE 136'
p4323
(dp4324
sS'_LONGITUDE 56'
p4325
(dp4326
sS'_LONGITUDE 48'
p4327
(dp4328
ssg1766
(dp4329
g578
(dp4330
ssg1768
(dp4331
g118
(dp4332
ssg1770
(dp4333
g260
(dp4334
ssg1772
(dp4335
g672
(dp4336
ssg1774
(dp4337
sg1776
(dp4338
g1716
(dp4339
ssg1778
(dp4340
g1030
(dp4341
ssg1780
(dp4342
g1000
(dp4343
ssg1782
(dp4344
g1700
(dp4345
ssg1784
(dp4346
g440
(dp4347
ssg1786
(dp4348
sg1788
(dp4349
g1498
(dp4350
ssg1790
(dp4351
sg1792
(dp4352
S'_ADDRESS 119'
p4353
(dp4354
sS'_ADDRESS 104'
p4355
(dp4356
sS'_ADDRESS 114'
p4357
(dp4358
sS'_ADDRESS 139'
p4359
(dp4360
sS'_ADDRESS 44'
p4361
(dp4362
sS'_ADDRESS 45'
p4363
(dp4364
sS'_ADDRESS 19'
p4365
(dp4366
ssg1794
(dp4367
g952
(dp4368
ssg1796
(dp4369
g736
(dp4370
sS'_ADDRESS 119'
p4371
(dp4372
sg1432
(dp4373
sg1340
(dp4374
sS'_ADDRESS 104'
p4375
(dp4376
sS'_ADDRESS 114'
p4377
(dp4378
sS'_ADDRESS 139'
p4379
(dp4380
sS'_ADDRESS 19'
p4381
(dp4382
sg780
(dp4383
sS'_ADDRESS 44'
p4384
(dp4385
sS'_ADDRESS 45'
p4386
(dp4387
sg1790
(dp4388
sg32
(dp4389
sg1168
(dp4390
sg922
(dp4391
sg1738
(dp4392
ssg1798
(dp4393
S'_LATITUDE 89'
p4394
(dp4395
sS'_LATITUDE 136'
p4396
(dp4397
sS'_LATITUDE 56'
p4398
(dp4399
sS'_LATITUDE 48'
p4400
(dp4401
ssg1800
(dp4402
ssS'edge'
p4403
g1805
sS'pred'
p4404
(dp4405
g8
(dp4406
sg10
(dp4407
g1748
g4301
ssg12
(dp4408
sg14
(dp4409
g216
g2136
sg840
g2997
sg1686
g4232
ssg16
(dp4410
sg18
(dp4411
g1270
g3579
sg1554
g3969
sg1186
g3452
ssg20
(dp4412
g798
g2945
ssg22
(dp4413
g1100
g3352
ssg24
(dp4414
g474
g2500
ssg26
(dp4415
sg28
(dp4416
g1124
g3390
ssg30
(dp4417
sg32
(dp4418
g1796
g4389
ssg34
(dp4419
g1104
g3360
ssg36
(dp4420
g1112
g3374
ssg38
(dp4421
g888
g3074
ssg40
(dp4422
sg42
(dp4423
S'_ZIPCODE 9'
p4424
g2707
sS'_ZIPCODE 107'
p4425
g2575
sS'_ZIPCODE 81'
p4426
g3906
ssg44
(dp4427
sg46
(dp4428
sg48
(dp4429
sg50
(dp4430
g1290
g3601
ssg52
(dp4431
sg54
(dp4432
sg56
(dp4433
sg58
(dp4434
g436
g2459
ssg60
(dp4435
sg62
(dp4436
g1250
g3556
ssg64
(dp4437
g1576
g4023
ssg66
(dp4438
g760
g2911
sg860
g3014
ssg68
(dp4439
S'_COUNTRY 35'
p4440
g2795
sg462
g2488
sg200
g2124
sS'_COUNTRY 113'
p4441
g2279
sS'_COUNTRY 76'
p4442
g3045
sg1652
g4189
sS'_COUNTRY 90'
p4443
g3518
ssg70
(dp4444
sg72
(dp4445
g1518
g3942
ssg74
(dp4446
g898
g3085
ssg76
(dp4447
S'_COUNTRY 76'
p4448
g3034
sS'_COUNTRY 113'
p4449
g2268
sS'_COUNTRY 90'
p4450
g3508
sS'_COUNTRY 35'
p4451
g2785
ssg78
(dp4452
g1592
g4082
sS'_CITY 121'
p4453
g4140
sS'_CITY 82'
p4454
g1887
sS'_CITY 90'
p4455
g2639
sS'_CITY 113'
p4456
g2020
sS'_CITY 76'
p4457
g4028
ssg80
(dp4458
g1360
g3718
ssg82
(dp4459
S'_CITY 82'
p4460
g1924
sS'_CITY 121'
p4461
g4144
sS'_CITY 76'
p4462
g4065
sS'_CITY 113'
p4463
g2057
sS'_CITY 90'
p4464
g2676
ssg84
(dp4465
g296
g2291
ssg86
(dp4466
sg88
(dp4467
sg90
(dp4468
g1284
g3596
sg1116
g3379
sg1106
g3362
sg866
g3018
sg1368
g3725
sg1088
g3330
ssg92
(dp4469
sg94
(dp4470
sg96
(dp4471
g1436
g3841
sg884
g3070
sg642
g2736
ssg98
(dp4472
sg100
(dp4473
S'_COUNTRY 35'
p4474
g2797
sg970
g3150
sS'_COUNTRY 113'
p4475
g2281
sg984
g3180
sS'_COUNTRY 76'
p4476
g3047
sS'_COUNTRY 90'
p4477
g3520
sg990
g3185
ssg102
(dp4478
S'_CITY 90'
p4479
g2666
sS'_CITY 121'
p4480
g4136
sS'_CITY 82'
p4481
g1914
sg1034
g3229
sS'_CITY 113'
p4482
g2048
sS'_CITY 76'
p4483
g4055
ssg104
(dp4484
S'_COUNTRY 35'
p4485
g2801
sg628
g2722
sg94
g1947
sS'_COUNTRY 113'
p4486
g2285
sS'_COUNTRY 76'
p4487
g3051
sg1326
g3686
sS'_COUNTRY 90'
p4488
g3525
ssg106
(dp4489
g662
g2756
ssg108
(dp4490
S'_STATE 130'
p4491
g3820
sS'_STATE 82'
p4492
g3757
sS'_STATE 35'
p4493
g3664
ssg110
(dp4494
sg112
(dp4495
g908
g3096
ssg114
(dp4496
sg116
(dp4497
sg118
(dp4498
g1768
g4332
ssg120
(dp4499
g902
g3092
ssg122
(dp4500
g1044
g3260
ssg124
(dp4501
g294
g2262
ssg126
(dp4502
g1048
g3272
ssg128
(dp4503
sg130
(dp4504
g1050
g3275
ssg132
(dp4505
S'_ACCOMMODATION 131'
p4506
g3641
sS'_ACCOMMODATION 58'
p4507
g1976
ssg134
(dp4508
g526
g2555
ssg136
(dp4509
g1102
g3358
ssg138
(dp4510
g412
g2430
ssg140
(dp4511
sg142
(dp4512
sg144
(dp4513
sg146
(dp4514
sg148
(dp4515
g998
g3193
ssg150
(dp4516
g560
g2601
sg630
g2724
sg886
g3072
sg240
g2201
sg1414
g3796
sg372
g2385
ssg152
(dp4517
sg154
(dp4518
sg156
(dp4519
g1182
g3449
ssg158
(dp4520
g1676
g4222
ssg160
(dp4521
sg162
(dp4522
g402
g2416
ssg164
(dp4523
g1684
g4230
ssg166
(dp4524
g1564
g4011
ssg168
(dp4525
g352
g2363
ssg170
(dp4526
sg172
(dp4527
g1002
g3201
ssg174
(dp4528
sg176
(dp4529
g550
g2584
ssg178
(dp4530
sg180
(dp4531
sg182
(dp4532
g42
g1834
sg152
g2074
ssg184
(dp4533
g1536
g3956
ssg186
(dp4534
sg188
(dp4535
g890
g3077
ssg190
(dp4536
sg192
(dp4537
sg194
(dp4538
S'_FOOD 30'
p4539
g3855
sS'_FOOD 92'
p4540
g3457
sS'_FOOD 87'
p4541
g4101
sS'_FOOD 73'
p4542
g4212
ssg196
(dp4543
g1320
g3680
ssg198
(dp4544
g716
g2845
ssg200
(dp4545
sg202
(dp4546
sg204
(dp4547
sg206
(dp4548
g1610
g4107
ssg208
(dp4549
g1060
g3292
ssg210
(dp4550
sg212
(dp4551
g870
g3041
ssg214
(dp4552
g708
g2834
ssg216
(dp4553
g1514
g3939
sg1200
g3472
sS'_COUNTRY 35'
p4554
g2773
sg1510
g3935
sS'_COUNTRY 113'
p4555
g2289
sS'_COUNTRY 76'
p4556
g3056
sS'_COUNTRY 90'
p4557
g3531
ssg218
(dp4558
g502
g2532
ssg220
(dp4559
g870
g3054
ssg222
(dp4560
sg224
(dp4561
g484
g2516
ssg226
(dp4562
sg228
(dp4563
sg230
(dp4564
S'_ADDRESS 85'
p4565
g2850
sS'_ADDRESS 104'
p4566
g2158
sS'_ADDRESS 120'
p4567
g2000
sS'_ADDRESS 101'
p4568
g2197
sg338
g2347
sS'_ADDRESS 54'
p4569
g4356
sS'_ADDRESS 50'
p4570
g4376
ssg232
(dp4571
sg234
(dp4572
sg236
(dp4573
sg238
(dp4574
g1344
g3704
ssg240
(dp4575
S'_POSTALCODE 45'
p4576
g4198
sS'_POSTALCODE 35'
p4577
g2436
sS'_POSTALCODE 136'
p4578
g4268
ssg242
(dp4579
S'_COFFEE 20'
p4580
g3468
sS'_COFFEE 12'
p4581
g4260
ssg244
(dp4582
S'_POSTALCODE 45'
p4583
g4200
sS'_POSTALCODE 35'
p4584
g2438
sS'_POSTALCODE 136'
p4585
g4270
ssg246
(dp4586
g1316
g3675
ssg248
(dp4587
g142
g2061
ssg250
(dp4588
g1328
g3689
ssg252
(dp4589
g314
g2324
ssg254
(dp4590
g422
g2444
sg700
g2828
sg1692
g4238
sg1084
g3327
sg1454
g3861
sg794
g2939
ssg256
(dp4591
g472
g2498
ssg258
(dp4592
sg260
(dp4593
g1770
g4334
ssg262
(dp4594
g708
g2835
ssg264
(dp4595
g1228
g3535
sg1406
g3780
sg288
g2250
sg566
g2613
sg626
g2720
sg1466
g3876
sg332
g2339
sg40
g1832
ssg266
(dp4596
sg268
(dp4597
sg270
(dp4598
g1398
g3772
ssg272
(dp4599
S'_BOOK 61'
p4600
g3987
sS'_BOOK 52'
p4601
g3256
sS'_BOOK 17'
p4602
g2984
sg1092
g3334
sg1354
g3712
sg664
g2758
sS'_BOOK 64'
p4603
g4009
ssg274
(dp4604
sg276
(dp4605
g534
g2560
ssg278
(dp4606
g716
g2864
ssg280
(dp4607
g1308
g3666
sg1242
g3548
sg648
g2741
sg1318
g3678
ssg282
(dp4608
g8
g1807
sg1418
g3799
ssg284
(dp4609
g1726
g4280
ssg286
(dp4610
sg288
(dp4611
sg290
(dp4612
g1754
g4311
ssg292
(dp4613
sg294
(dp4614
g412
g2428
ssg296
(dp4615
g266
g2231
ssg298
(dp4616
g424
g2446
sS'_CITY 121'
p4617
g4130
sS'_CITY 82'
p4618
g1906
sS'_CITY 90'
p4619
g2656
sS'_CITY 113'
p4620
g2040
sS'_CITY 76'
p4621
g4047
ssg300
(dp4622
g426
g2448
sS'_CITY 121'
p4623
g4132
sS'_CITY 82'
p4624
g1908
sS'_CITY 90'
p4625
g2658
sS'_CITY 113'
p4626
g2042
sS'_CITY 76'
p4627
g4049
ssg302
(dp4628
g968
g3148
ssg304
(dp4629
S'_LONGITUDE 130'
p4630
g3240
sS'_LONGITUDE 104'
p4631
g3791
sS'_LONGITUDE 114'
p4632
g1849
sS'_LONGITUDE 106'
p4633
g2599
sS'_LONGITUDE 29'
p4634
g2891
sS'_LONGITUDE 100'
p4635
g3830
sS'_LONGITUDE 103'
p4636
g2610
sS'_LONGITUDE 139'
p4637
g3270
sS'_LONGITUDE 19'
p4638
g2510
sS'_LONGITUDE 119'
p4639
g1869
sS'_LONGITUDE 9'
p4640
g4328
sS'_LONGITUDE 76'
p4641
g3885
sS'_LONGITUDE 45'
p4642
g2310
sS'_LONGITUDE 44'
p4643
g2319
sS'_LONGITUDE 54'
p4644
g3347
ssg306
(dp4645
g788
g2934
ssg308
(dp4646
sg310
(dp4647
g1218
g3493
ssg312
(dp4648
g1628
g4123
ssg314
(dp4649
g878
g3063
sg1612
g4110
sg244
g2205
sg1314
g3673
ssg316
(dp4650
g1694
g4240
ssg318
(dp4651
g10
g1809
ssg320
(dp4652
sg322
(dp4653
g254
g2220
ssg324
(dp4654
sg326
(dp4655
g874
g3059
ssg328
(dp4656
g238
g2189
ssg330
(dp4657
g716
g2863
ssg332
(dp4658
sg334
(dp4659
sg336
(dp4660
sg338
(dp4661
g230
g2163
sg1352
g3710
sg636
g2731
sg882
g3068
sg1438
g3843
ssg340
(dp4662
sg342
(dp4663
S'_LONGITUDE 130'
p4664
g3236
sS'_LONGITUDE 104'
p4665
g3787
sS'_LONGITUDE 114'
p4666
g1845
sS'_LONGITUDE 106'
p4667
g2595
sS'_LONGITUDE 29'
p4668
g2887
sS'_LONGITUDE 100'
p4669
g3826
sS'_LONGITUDE 103'
p4670
g2606
sS'_LONGITUDE 139'
p4671
g3266
sS'_LONGITUDE 19'
p4672
g2506
sS'_LONGITUDE 119'
p4673
g1865
sS'_LONGITUDE 9'
p4674
g4324
sS'_LONGITUDE 76'
p4675
g3881
sS'_LONGITUDE 45'
p4676
g2306
sS'_LONGITUDE 44'
p4677
g2315
sS'_LONGITUDE 54'
p4678
g3343
ssg344
(dp4679
sg346
(dp4680
g1518
g3943
ssg348
(dp4681
sg350
(dp4682
g402
g2417
ssg352
(dp4683
g68
g1879
ssg354
(dp4684
g1444
g3847
sg1330
g3691
ssg356
(dp4685
g1072
g3308
ssg358
(dp4686
sg360
(dp4687
sg362
(dp4688
S'_STATE 130'
p4689
g3816
sS'_STATE 82'
p4690
g3753
sS'_STATE 35'
p4691
g3660
ssg364
(dp4692
S'_STATE 130'
p4693
g3818
sS'_STATE 82'
p4694
g3755
sS'_STATE 35'
p4695
g3662
ssg366
(dp4696
g138
g2051
ssg368
(dp4697
S'_ACCOMMODATION 131'
p4698
g3639
sS'_ACCOMMODATION 58'
p4699
g1974
ssg370
(dp4700
g116
g1969
sg1370
g3727
sg114
g1967
ssg372
(dp4701
sg374
(dp4702
g1222
g3529
ssg376
(dp4703
sg378
(dp4704
sg380
(dp4705
sg382
(dp4706
sg384
(dp4707
g1218
g3489
ssg386
(dp4708
sg388
(dp4709
g1016
g3212
ssg390
(dp4710
g544
g2579
sS'_BOOK 52'
p4711
g3254
sg994
g3189
sS'_BOOK 17'
p4712
g2982
sg428
g2450
sS'_BOOK 61'
p4713
g3976
sS'_BOOK 64'
p4714
g4007
ssg392
(dp4715
g1166
g3435
ssg394
(dp4716
sg396
(dp4717
sg398
(dp4718
g898
g3086
ssg400
(dp4719
sg402
(dp4720
g1762
g4319
ssg404
(dp4721
sg406
(dp4722
sg408
(dp4723
g1412
g3793
ssg410
(dp4724
S'_FOOD 30'
p4725
g3857
sS'_FOOD 92'
p4726
g3459
sS'_FOOD 87'
p4727
g4103
sS'_FOOD 73'
p4728
g4214
ssg412
(dp4729
g1028
g3222
sg1386
g3761
ssg414
(dp4730
g136
g1993
ssg416
(dp4731
g1000
g3196
ssg418
(dp4732
g816
g2960
ssg420
(dp4733
g900
g3090
ssg422
(dp4734
sg424
(dp4735
sg426
(dp4736
sg428
(dp4737
sg430
(dp4738
g1730
g4284
ssg432
(dp4739
g678
g2804
ssg434
(dp4740
g832
g2990
sg976
g3170
sg1682
g4228
sg778
g2927
sg100
g1954
ssg436
(dp4741
g1572
g4019
ssg438
(dp4742
g1754
g4312
ssg440
(dp4743
g1784
g4347
ssg442
(dp4744
g260
g2225
ssg444
(dp4745
sg446
(dp4746
g1556
g3972
ssg448
(dp4747
g978
g3172
sg522
g2552
sg1094
g3336
ssg450
(dp4748
g146
g2066
ssg452
(dp4749
g450
g2479
ssg454
(dp4750
g1202
g3474
ssg456
(dp4751
g238
g2181
ssg458
(dp4752
S'_ZIPCODE 9'
p4753
g2703
sS'_ZIPCODE 107'
p4754
g2571
sS'_ZIPCODE 81'
p4755
g3902
ssg460
(dp4756
sg462
(dp4757
sg464
(dp4758
sg466
(dp4759
sg468
(dp4760
sg470
(dp4761
g1250
g3558
ssg472
(dp4762
g30
g1825
ssg474
(dp4763
g1626
g4120
ssg476
(dp4764
g898
g3087
ssg478
(dp4765
g1138
g3402
ssg480
(dp4766
sg482
(dp4767
g324
g2333
ssg484
(dp4768
g1160
g3425
sg1246
g3552
ssg486
(dp4769
g316
g2327
ssg488
(dp4770
sg490
(dp4771
sg492
(dp4772
g1280
g3590
ssg494
(dp4773
S'_LATITUDE 114'
p4774
g4253
sS'_LATITUDE 9'
p4775
g2466
sS'_LATITUDE 19'
p4776
g2823
sS'_LATITUDE 119'
p4777
g4399
sS'_LATITUDE 106'
p4778
g2216
sS'_LATITUDE 45'
p4779
g3157
sS'_LATITUDE 44'
p4780
g3166
sS'_LATITUDE 130'
p4781
g3369
sS'_LATITUDE 139'
p4782
g3317
sS'_LATITUDE 103'
p4783
g3608
sS'_LATITUDE 29'
p4784
g2143
sS'_LATITUDE 100'
p4785
g3619
sS'_LATITUDE 76'
p4786
g3575
sS'_LATITUDE 54'
p4787
g3287
sS'_LATITUDE 104'
p4788
g3632
ssg496
(dp4789
g1040
g3242
ssg498
(dp4790
sg500
(dp4791
g854
g3008
ssg502
(dp4792
g804
g2950
sg1152
g3413
sg1274
g3583
ssg504
(dp4793
g1550
g3966
ssg506
(dp4794
sg508
(dp4795
g1218
g3491
ssg510
(dp4796
g136
g2013
ssg512
(dp4797
g1598
g4091
ssg514
(dp4798
sg516
(dp4799
S'_ADDRESS 85'
p4800
g2862
sS'_ADDRESS 104'
p4801
g2165
sS'_ADDRESS 120'
p4802
g2007
sS'_ADDRESS 101'
p4803
g2191
sS'_ADDRESS 54'
p4804
g4362
sS'_ADDRESS 50'
p4805
g4385
ssg518
(dp4806
S'_ADDRESS 85'
p4807
g2858
sS'_ADDRESS 104'
p4808
g2167
sS'_ADDRESS 120'
p4809
g2009
sS'_ADDRESS 101'
p4810
g2193
sS'_ADDRESS 54'
p4811
g4364
sS'_ADDRESS 50'
p4812
g4387
ssg520
(dp4813
g136
g2012
ssg522
(dp4814
S'_LONGITUDE 130'
p4815
g3234
sS'_LONGITUDE 104'
p4816
g3785
sS'_LONGITUDE 114'
p4817
g1843
sS'_LONGITUDE 106'
p4818
g2593
sS'_LONGITUDE 29'
p4819
g2885
sS'_LONGITUDE 100'
p4820
g3824
sS'_LONGITUDE 103'
p4821
g2604
sS'_LONGITUDE 139'
p4822
g3264
sS'_LONGITUDE 19'
p4823
g2504
sS'_LONGITUDE 119'
p4824
g1863
sS'_LONGITUDE 9'
p4825
g4322
sS'_LONGITUDE 76'
p4826
g3879
sS'_LONGITUDE 45'
p4827
g2304
sS'_LONGITUDE 44'
p4828
g2313
sS'_LONGITUDE 54'
p4829
g3341
ssg524
(dp4830
g1672
g4218
ssg526
(dp4831
g838
g2995
sg496
g2527
ssg528
(dp4832
g1000
g3198
ssg530
(dp4833
g1124
g3389
ssg532
(dp4834
g812
g2957
ssg534
(dp4835
g1020
g3216
ssg536
(dp4836
g1588
g4078
ssg538
(dp4837
g1090
g3332
sg660
g2754
sg1606
g4098
sg228
g2153
ssg540
(dp4838
g1042
g3244
ssg542
(dp4839
g998
g3192
ssg544
(dp4840
sg546
(dp4841
g750
g2901
ssg548
(dp4842
g388
g2400
ssg550
(dp4843
g1210
g3482
ssg552
(dp4844
sg554
(dp4845
S'_HOTEL 13'
p4846
g3777
sS'_HOTEL 39'
p4847
g3697
sS'_HOTEL 34'
p4848
g3702
sS'_HOTEL 23'
p4849
g1858
sS'_HOTEL 65'
p4850
g4172
sS'_HOTEL 84'
p4851
g2727
sS'_HOTEL 97'
p4852
g1991
ssg556
(dp4853
sg558
(dp4854
g314
g2323
ssg560
(dp4855
sg562
(dp4856
g96
g1950
ssg564
(dp4857
g136
g2001
ssg566
(dp4858
sg568
(dp4859
sg570
(dp4860
S'_PERSON 7'
p4861
g2625
ssg572
(dp4862
g640
g2734
ssg574
(dp4863
g172
g2091
ssg576
(dp4864
S'_PUBLICATION 123'
p4865
g2407
sS'_PUBLICATION 21'
p4866
g3593
sS'_PUBLICATION 86'
p4867
g1931
sg464
g2490
sS'_PUBLICATION 72'
p4868
g2622
sg1158
g3423
sS'_PUBLICATION 68'
p4869
g3297
ssg578
(dp4870
g1698
g4244
sg210
g2132
sg1188
g3454
sg1642
g4180
sg1766
g4330
sg1334
g3694
sg170
g2089
sg1678
g4224
ssg580
(dp4871
g1280
g3591
ssg582
(dp4872
g154
g2077
ssg584
(dp4873
g1748
g4302
ssg586
(dp4874
g1060
g3291
ssg588
(dp4875
g238
g2188
ssg590
(dp4876
g538
g2563
ssg592
(dp4877
sg594
(dp4878
S'_COUNTRY 35'
p4879
g2791
sg1496
g3920
sS'_COUNTRY 113'
p4880
g2275
sS'_COUNTRY 76'
p4881
g3036
sg1492
g3916
sg1478
g3893
sS'_COUNTRY 90'
p4882
g3514
ssg596
(dp4883
S'_COUNTRY 35'
p4884
g2793
sg1476
g3891
sS'_COUNTRY 113'
p4885
g2277
sS'_COUNTRY 76'
p4886
g3043
sg1696
g4242
sg1494
g3918
sS'_COUNTRY 90'
p4887
g3516
ssg598
(dp4888
g556
g2590
sg320
g2330
sg1180
g3447
sg1312
g3671
sg724
g2871
sg1472
g3888
sg1720
g4275
sg1384
g3759
ssg600
(dp4889
g376
g2388
sg988
g3183
sg304
g2298
ssg602
(dp4890
g338
g2350
ssg604
(dp4891
g1564
g3995
ssg606
(dp4892
g1064
g3301
ssg608
(dp4893
g1560
g3977
ssg610
(dp4894
g598
g2687
ssg612
(dp4895
g82
g1935
ssg614
(dp4896
g1754
g4310
ssg616
(dp4897
g910
g3098
ssg618
(dp4898
sg620
(dp4899
sg622
(dp4900
sg624
(dp4901
sg626
(dp4902
sg628
(dp4903
sg630
(dp4904
sg632
(dp4905
g612
g2696
ssg634
(dp4906
sg636
(dp4907
g1036
g3231
sS'_CITY 121'
p4908
g4138
sS'_CITY 82'
p4909
g1918
sS'_CITY 90'
p4910
g2670
sS'_CITY 113'
p4911
g2026
sS'_CITY 76'
p4912
g4059
ssg638
(dp4913
g824
g2968
ssg640
(dp4914
g1300
g3625
ssg642
(dp4915
S'_CITY 121'
p4916
g4142
sS'_CITY 82'
p4917
g1922
sg1570
g4017
sS'_CITY 90'
p4918
g2674
sS'_CITY 113'
p4919
g2055
sS'_CITY 76'
p4920
g4063
ssg644
(dp4921
g506
g2538
ssg646
(dp4922
g1322
g3682
ssg648
(dp4923
sg650
(dp4924
g678
g2783
ssg652
(dp4925
g818
g2962
ssg654
(dp4926
g798
g2943
ssg656
(dp4927
S'_RECOMMENDEDPRICE 112'
p4928
g1872
sS'_RECOMMENDEDPRICE 68'
p4929
g2369
ssg658
(dp4930
sg660
(dp4931
g1740
g4293
ssg662
(dp4932
g1128
g3393
sg1142
g3406
ssg664
(dp4933
sg666
(dp4934
g656
g2750
sg554
g2588
ssg668
(dp4935
sg670
(dp4936
g484
g2517
ssg672
(dp4937
g1772
g4336
ssg674
(dp4938
g848
g3003
sg738
g2882
sS'_COUNTRY 35'
p4939
g2771
sS'_COUNTRY 113'
p4940
g2256
sS'_COUNTRY 76'
p4941
g3023
sg926
g3113
sS'_COUNTRY 90'
p4942
g3498
ssg676
(dp4943
g1062
g3295
ssg678
(dp4944
g1000
g3195
ssg680
(dp4945
g852
g3006
sg744
g2895
sS'_COUNTRY 35'
p4946
g2778
sS'_COUNTRY 113'
p4947
g2266
sS'_COUNTRY 76'
p4948
g3027
sS'_COUNTRY 90'
p4949
g3502
sg932
g3118
ssg682
(dp4950
g584
g2644
ssg684
(dp4951
S'_COUNTRY 35'
p4952
g2782
sg858
g3012
sg748
g2898
sS'_COUNTRY 113'
p4953
g2264
sg912
g3100
sS'_COUNTRY 76'
p4954
g3032
sS'_COUNTRY 90'
p4955
g3506
ssg686
(dp4956
g412
g2426
ssg688
(dp4957
g1100
g3355
ssg690
(dp4958
sg692
(dp4959
sg694
(dp4960
g238
g2177
ssg696
(dp4961
g1138
g3403
ssg698
(dp4962
g412
g2429
ssg700
(dp4963
g144
g2063
ssg702
(dp4964
sg704
(dp4965
g716
g2851
ssg706
(dp4966
g754
g2905
ssg708
(dp4967
g410
g2424
ssg710
(dp4968
sg712
(dp4969
g324
g2334
ssg714
(dp4970
sg716
(dp4971
g960
g3140
ssg718
(dp4972
S'_ADDRESS 85'
p4973
g2848
sS'_ADDRESS 104'
p4974
g2156
sS'_ADDRESS 120'
p4975
g1997
sS'_ADDRESS 101'
p4976
g2185
sS'_ADDRESS 54'
p4977
g4354
sS'_ADDRESS 50'
p4978
g4372
ssg720
(dp4979
S'_ADDRESS 85'
p4980
g2844
sS'_ADDRESS 104'
p4981
g2160
sS'_ADDRESS 120'
p4982
g1995
sS'_ADDRESS 101'
p4983
g2187
sS'_ADDRESS 54'
p4984
g4358
sS'_ADDRESS 50'
p4985
g4378
ssg722
(dp4986
g294
g2269
ssg724
(dp4987
sg726
(dp4988
g448
g2477
ssg728
(dp4989
sg730
(dp4990
g26
g1822
ssg732
(dp4991
g690
g2813
sg190
g2112
sg1430
g3836
sg360
g2373
ssg734
(dp4992
g764
g2915
ssg736
(dp4993
g1796
g4370
ssg738
(dp4994
sg740
(dp4995
g502
g2533
ssg742
(dp4996
sg744
(dp4997
sg746
(dp4998
g828
g2972
ssg748
(dp4999
sg750
(dp5000
g1266
g3568
ssg752
(dp5001
g1010
g3208
ssg754
(dp5002
g1378
g3735
sg962
g3142
ssg756
(dp5003
g552
g2586
sg570
g2617
sg1008
g3206
ssg758
(dp5004
g1064
g3299
ssg760
(dp5005
S'_ZIPCODE 9'
p5006
g2705
sS'_ZIPCODE 107'
p5007
g2573
sS'_ZIPCODE 81'
p5008
g3904
ssg762
(dp5009
g204
g2128
ssg764
(dp5010
g222
g2148
ssg766
(dp5011
sg768
(dp5012
g928
g3115
ssg770
(dp5013
g1278
g3588
sS'_CITY 76'
p5014
g4026
sS'_CITY 82'
p5015
g1885
sg1114
g3377
sS'_CITY 90'
p5016
g2637
sS'_CITY 113'
p5017
g2018
sS'_CITY 121'
p5018
g4150
ssg772
(dp5019
g238
g2180
ssg774
(dp5020
sg776
(dp5021
sg778
(dp5022
g1688
g4234
sS'_CITY 121'
p5023
g4160
sS'_CITY 82'
p5024
g1902
sS'_CITY 90'
p5025
g2652
sS'_CITY 113'
p5026
g2036
sS'_CITY 76'
p5027
g4043
ssg780
(dp5028
g1796
g4383
ssg782
(dp5029
g880
g3065
ssg784
(dp5030
g964
g3144
sg16
g1815
sg180
g2098
sg1710
g4262
sg292
g2253
sg1690
g4236
sg658
g2752
sg1638
g4176
ssg786
(dp5031
g1366
g3723
ssg788
(dp5032
g668
g2763
ssg790
(dp5033
g136
g2014
ssg792
(dp5034
g448
g2476
ssg794
(dp5035
sg796
(dp5036
S'_LONGITUDE 130'
p5037
g3238
sS'_LONGITUDE 104'
p5038
g3789
sS'_LONGITUDE 114'
p5039
g1847
sS'_LONGITUDE 106'
p5040
g2597
sS'_LONGITUDE 29'
p5041
g2889
sS'_LONGITUDE 100'
p5042
g3828
sS'_LONGITUDE 103'
p5043
g2608
sS'_LONGITUDE 139'
p5044
g3268
sS'_LONGITUDE 19'
p5045
g2508
sS'_LONGITUDE 119'
p5046
g1867
sS'_LONGITUDE 9'
p5047
g4326
sS'_LONGITUDE 76'
p5048
g3883
sS'_LONGITUDE 45'
p5049
g2308
sS'_LONGITUDE 44'
p5050
g2317
sS'_LONGITUDE 54'
p5051
g3345
ssg798
(dp5052
g1136
g3399
sg92
g1945
ssg800
(dp5053
g788
g2935
ssg802
(dp5054
S'_STATE 130'
p5055
g3806
sS'_STATE 82'
p5056
g3743
sS'_STATE 35'
p5057
g3650
ssg804
(dp5058
S'_STATE 130'
p5059
g3802
sS'_STATE 82'
p5060
g3739
sS'_STATE 35'
p5061
g3646
ssg806
(dp5062
sg808
(dp5063
sg810
(dp5064
g1560
g3988
ssg812
(dp5065
g460
g2486
sg1212
g3484
sg488
g2520
sg382
g2394
sg808
g2954
sg1664
g4205
ssg814
(dp5066
g150
g2070
ssg816
(dp5067
sg818
(dp5068
g1208
g3479
ssg820
(dp5069
sg822
(dp5070
g54
g1853
sS'_COUNTRY 35'
p5071
g2789
sg234
g2173
sg1624
g4118
sS'_COUNTRY 113'
p5072
g2271
sS'_COUNTRY 76'
p5073
g3038
sS'_COUNTRY 90'
p5074
g3512
ssg824
(dp5075
sg826
(dp5076
S'_ADDRESS 85'
p5077
g2854
sS'_ADDRESS 104'
p5078
g2162
sS'_ADDRESS 120'
p5079
g2004
sS'_ADDRESS 101'
p5080
g2183
sS'_ADDRESS 54'
p5081
g4360
sS'_ADDRESS 50'
p5082
g4380
ssg828
(dp5083
g156
g2080
ssg830
(dp5084
sg832
(dp5085
S'_STATE 130'
p5086
g3812
sS'_STATE 82'
p5087
g3749
sS'_STATE 35'
p5088
g3656
ssg834
(dp5089
g600
g2689
ssg836
(dp5090
sg838
(dp5091
g1198
g3470
sS'_COUNTRY 35'
p5092
g2803
sg1096
g3338
sg12
g1812
sS'_COUNTRY 113'
p5093
g2287
sS'_COUNTRY 76'
p5094
g3053
sS'_COUNTRY 90'
p5095
g3527
ssg840
(dp5096
g86
g1939
sg70
g1881
ssg842
(dp5097
g1564
g4010
ssg844
(dp5098
S'_ZIPCODE 9'
p5099
g2709
sS'_ZIPCODE 107'
p5100
g2577
sS'_ZIPCODE 81'
p5101
g3908
ssg846
(dp5102
g1560
g3991
ssg848
(dp5103
sg850
(dp5104
g1100
g3350
ssg852
(dp5105
sg854
(dp5106
g494
g2525
sg1644
g4182
sg796
g2941
ssg856
(dp5107
S'_ZIPCODE 9'
p5108
g2701
sS'_ZIPCODE 107'
p5109
g2569
sS'_ZIPCODE 81'
p5110
g3900
ssg858
(dp5111
sg860
(dp5112
sg862
(dp5113
g280
g2242
ssg864
(dp5114
g1628
g4124
ssg866
(dp5115
sg868
(dp5116
g1192
g3463
ssg870
(dp5117
g66
g1874
ssg872
(dp5118
g1100
g3349
ssg874
(dp5119
g1506
g3931
sg178
g2096
sg344
g2357
sg1348
g3707
sg830
g2988
sg1596
g4089
ssg876
(dp5120
sg878
(dp5121
sg880
(dp5122
g46
g1838
ssg882
(dp5123
sg884
(dp5124
sg886
(dp5125
sg888
(dp5126
g284
g2246
ssg890
(dp5127
g1522
g3946
ssg892
(dp5128
sg894
(dp5129
sg896
(dp5130
g1630
g4163
ssg898
(dp5131
g856
g3010
sg1294
g3612
ssg900
(dp5132
g1392
g3765
sg1462
g3872
sg60
g1860
ssg902
(dp5133
sg904
(dp5134
g1578
g4041
ssg906
(dp5135
g1630
g4126
ssg908
(dp5136
g1056
g3280
ssg910
(dp5137
g264
g2229
ssg912
(dp5138
sg914
(dp5139
sg916
(dp5140
g762
g2913
ssg918
(dp5141
g1078
g3321
ssg920
(dp5142
g798
g2944
ssg922
(dp5143
g1796
g4391
ssg924
(dp5144
g78
g1928
sg938
g3123
sg108
g1962
ssg926
(dp5145
sg928
(dp5146
g944
g3128
ssg930
(dp5147
g1024
g3219
ssg932
(dp5148
sg934
(dp5149
g1556
g3971
ssg936
(dp5150
g1662
g4203
ssg938
(dp5151
sg940
(dp5152
sg942
(dp5153
g338
g2348
ssg944
(dp5154
g1590
g4080
ssg946
(dp5155
g136
g1998
ssg948
(dp5156
S'_PROFESSOR-IN-ACADEMIA 6'
p5157
g3105
ssg950
(dp5158
S'_STATE 130'
p5159
g3814
sS'_STATE 82'
p5160
g3751
sS'_STATE 35'
p5161
g3658
ssg952
(dp5162
g1794
g4368
ssg954
(dp5163
g484
g2515
ssg956
(dp5164
g1398
g3771
ssg958
(dp5165
g136
g2015
ssg960
(dp5166
g948
g3131
ssg962
(dp5167
g378
g2390
sS'_CITY 76'
p5168
g4053
sS'_CITY 82'
p5169
g1912
sg1636
g4174
sS'_CITY 90'
p5170
g2662
sS'_CITY 113'
p5171
g2046
sS'_CITY 121'
p5172
g4134
ssg964
(dp5173
sg966
(dp5174
g1666
g4207
ssg968
(dp5175
g76
g1926
ssg970
(dp5176
sg972
(dp5177
g1218
g3488
ssg974
(dp5178
g1628
g4122
ssg976
(dp5179
S'_POSTALCODE 45'
p5180
g4196
sS'_POSTALCODE 35'
p5181
g2434
sS'_POSTALCODE 136'
p5182
g4266
ssg978
(dp5183
S'_LATITUDE 114'
p5184
g4249
sS'_LATITUDE 9'
p5185
g2462
sS'_LATITUDE 19'
p5186
g2819
sS'_LATITUDE 119'
p5187
g4395
sS'_LATITUDE 106'
p5188
g2212
sS'_LATITUDE 45'
p5189
g3153
sS'_LATITUDE 44'
p5190
g3162
sS'_LATITUDE 130'
p5191
g3365
sS'_LATITUDE 139'
p5192
g3313
sS'_LATITUDE 103'
p5193
g3604
sS'_LATITUDE 29'
p5194
g2139
sS'_LATITUDE 100'
p5195
g3615
sS'_LATITUDE 76'
p5196
g3571
sS'_LATITUDE 54'
p5197
g3283
sS'_LATITUDE 104'
p5198
g3628
ssg980
(dp5199
g154
g2078
ssg982
(dp5200
g1298
g3623
ssg984
(dp5201
sg986
(dp5202
g1372
g3730
ssg988
(dp5203
S'_LATITUDE 114'
p5204
g4255
sS'_LATITUDE 9'
p5205
g2468
sS'_LATITUDE 19'
p5206
g2825
sS'_LATITUDE 119'
p5207
g4401
sS'_LATITUDE 106'
p5208
g2218
sS'_LATITUDE 45'
p5209
g3159
sS'_LATITUDE 44'
p5210
g3168
sS'_LATITUDE 130'
p5211
g3371
sS'_LATITUDE 139'
p5212
g3319
sS'_LATITUDE 103'
p5213
g3610
sS'_LATITUDE 29'
p5214
g2145
sS'_LATITUDE 100'
p5215
g3621
sS'_LATITUDE 76'
p5216
g3577
sS'_LATITUDE 54'
p5217
g3289
sS'_LATITUDE 104'
p5218
g3634
ssg990
(dp5219
sg992
(dp5220
sg994
(dp5221
sg996
(dp5222
g1174
g3442
ssg998
(dp5223
g876
g3061
sg102
g1956
sg1408
g3782
sg1484
g3910
sg822
g2966
ssg1000
(dp5224
g1780
g4343
sg1170
g3438
ssg1002
(dp5225
g1230
g3537
sS'_BOOK 52'
p5226
g3246
sg56
g1855
sS'_BOOK 17'
p5227
g2974
sS'_BOOK 64'
p5228
g3999
sS'_BOOK 61'
p5229
g3979
sg1742
g4296
ssg1004
(dp5230
sg1006
(dp5231
g390
g2402
ssg1008
(dp5232
g52
g1851
sS'_BOOK 52'
p5233
g3250
sg1238
g3544
sS'_BOOK 17'
p5234
g2978
sg1734
g4288
sS'_BOOK 61'
p5235
g3983
sS'_BOOK 64'
p5236
g4003
ssg1010
(dp5237
g48
g1840
sg1234
g3540
sS'_BOOK 52'
p5238
g3252
sS'_BOOK 17'
p5239
g2980
sg1732
g4286
sS'_BOOK 61'
p5240
g3985
sS'_BOOK 64'
p5241
g4005
ssg1012
(dp5242
g550
g2583
ssg1014
(dp5243
g578
g2632
ssg1016
(dp5244
sg1018
(dp5245
sg1020
(dp5246
sg1022
(dp5247
g888
g3075
ssg1024
(dp5248
g202
g2126
sg406
g2421
sg1272
g3581
sg710
g2837
ssg1026
(dp5249
g1174
g3443
ssg1028
(dp5250
S'_ZIPCODE 9'
p5251
g2699
sS'_ZIPCODE 107'
p5252
g2567
sS'_ZIPCODE 81'
p5253
g3898
ssg1030
(dp5254
g1778
g4341
ssg1032
(dp5255
sg1034
(dp5256
sg1036
(dp5257
sg1038
(dp5258
g182
g2100
ssg1040
(dp5259
sg1042
(dp5260
g1310
g3668
ssg1044
(dp5261
g918
g3107
ssg1046
(dp5262
g1582
g4069
ssg1048
(dp5263
g756
g2908
ssg1050
(dp5264
g752
g2903
ssg1052
(dp5265
g716
g2842
ssg1054
(dp5266
g870
g3028
ssg1056
(dp5267
g1580
g4067
sg1548
g3964
sg1400
g3774
sg192
g2114
ssg1058
(dp5268
g434
g2457
ssg1060
(dp5269
g412
g2427
ssg1062
(dp5270
g1072
g3309
ssg1064
(dp5271
g354
g2366
ssg1066
(dp5272
g1656
g4193
ssg1068
(dp5273
g400
g2414
sg404
g2419
sg1508
g3933
ssg1070
(dp5274
g716
g2846
ssg1072
(dp5275
g1448
g3850
ssg1074
(dp5276
g150
g2069
ssg1076
(dp5277
g1582
g4071
ssg1078
(dp5278
S'_FOOD 30'
p5279
g3859
sS'_FOOD 92'
p5280
g3461
sS'_FOOD 87'
p5281
g4105
sS'_FOOD 73'
p5282
g4216
ssg1080
(dp5283
g1480
g3895
sS'_CITY 121'
p5284
g4146
sS'_CITY 82'
p5285
g1904
sS'_CITY 90'
p5286
g2654
sS'_CITY 113'
p5287
g2038
sS'_CITY 76'
p5288
g4045
ssg1082
(dp5289
S'_LATITUDE 114'
p5290
g4251
sS'_LATITUDE 9'
p5291
g2464
sS'_LATITUDE 19'
p5292
g2821
sS'_LATITUDE 119'
p5293
g4397
sS'_LATITUDE 106'
p5294
g2214
sS'_LATITUDE 45'
p5295
g3155
sS'_LATITUDE 44'
p5296
g3164
sS'_LATITUDE 130'
p5297
g3367
sS'_LATITUDE 139'
p5298
g3315
sS'_LATITUDE 103'
p5299
g3606
sS'_LATITUDE 29'
p5300
g2141
sS'_LATITUDE 100'
p5301
g3617
sS'_LATITUDE 76'
p5302
g3573
sS'_LATITUDE 54'
p5303
g3285
sS'_LATITUDE 104'
p5304
g3630
ssg1084
(dp5305
sg1086
(dp5306
g418
g2440
ssg1088
(dp5307
sg1090
(dp5308
sg1092
(dp5309
sg1094
(dp5310
sg1096
(dp5311
sg1098
(dp5312
g434
g2456
ssg1100
(dp5313
g1372
g3729
ssg1102
(dp5314
g868
g3020
ssg1104
(dp5315
S'_CITY 82'
p5316
g1910
sS'_CITY 121'
p5317
g4162
sS'_CITY 76'
p5318
g4051
sS'_CITY 113'
p5319
g2044
sS'_CITY 90'
p5320
g2660
ssg1106
(dp5321
sg1108
(dp5322
g182
g2102
ssg1110
(dp5323
g1648
g4186
ssg1112
(dp5324
g194
g2116
ssg1114
(dp5325
S'_ACCOMMODATION 131'
p5326
g3643
sS'_ACCOMMODATION 58'
p5327
g1978
ssg1116
(dp5328
sg1118
(dp5329
sg1120
(dp5330
g1276
g3586
ssg1122
(dp5331
g10
g1810
ssg1124
(dp5332
g334
g2341
ssg1126
(dp5333
g578
g2629
ssg1128
(dp5334
sg1130
(dp5335
S'_RESEARCHER 27'
p5336
g2747
ssg1132
(dp5337
g716
g2856
ssg1134
(dp5338
g1316
g3676
ssg1136
(dp5339
sg1138
(dp5340
g1574
g4021
sg1756
g4315
ssg1140
(dp5341
g1328
g3688
ssg1142
(dp5342
sg1144
(dp5343
S'_CITY 90'
p5344
g2664
sS'_CITY 121'
p5345
g4165
sS'_CITY 82'
p5346
g1894
sg1562
g3993
sS'_CITY 113'
p5347
g2028
sS'_CITY 76'
p5348
g4034
ssg1146
(dp5349
g338
g2351
ssg1148
(dp5350
g1100
g3351
ssg1150
(dp5351
g74
g1892
ssg1152
(dp5352
g892
g3080
sS'_COUNTRY 35'
p5353
g2780
sS'_COUNTRY 113'
p5354
g2283
sg914
g3102
sg490
g2522
sS'_COUNTRY 76'
p5355
g3030
sS'_COUNTRY 90'
p5356
g3504
ssg1154
(dp5357
g504
g2536
ssg1156
(dp5358
g1456
g3863
ssg1158
(dp5359
sg1160
(dp5360
sg1162
(dp5361
sg1164
(dp5362
g1310
g3669
ssg1166
(dp5363
g1600
g4093
ssg1168
(dp5364
g1796
g4390
ssg1170
(dp5365
sg1172
(dp5366
g674
g2767
ssg1174
(dp5367
g1640
g4178
sg286
g2248
sg1512
g3937
sg806
g2952
sg386
g2397
sg336
g2343
ssg1176
(dp5368
g136
g2005
ssg1178
(dp5369
g314
g2325
ssg1180
(dp5370
sg1182
(dp5371
sg1184
(dp5372
g716
g2852
ssg1186
(dp5373
sg1188
(dp5374
sg1190
(dp5375
g992
g3187
ssg1192
(dp5376
sg1194
(dp5377
sg1196
(dp5378
g154
g2076
ssg1198
(dp5379
sg1200
(dp5380
sg1202
(dp5381
g568
g2615
ssg1204
(dp5382
g1130
g3395
ssg1206
(dp5383
g1588
g4077
ssg1208
(dp5384
g1736
g4290
sg380
g2392
ssg1210
(dp5385
g480
g2512
ssg1212
(dp5386
sg1214
(dp5387
g1064
g3300
ssg1216
(dp5388
g472
g2497
ssg1218
(dp5389
g596
g2685
sg518
g2549
sg300
g2295
sg728
g2874
sg362
g2375
ssg1220
(dp5390
g1500
g3925
ssg1222
(dp5391
g1748
g4303
ssg1224
(dp5392
g260
g2226
ssg1226
(dp5393
g238
g2199
ssg1228
(dp5394
sg1230
(dp5395
sg1232
(dp5396
g1066
g3303
ssg1234
(dp5397
sg1236
(dp5398
sg1238
(dp5399
sg1240
(dp5400
sg1242
(dp5401
sg1244
(dp5402
sg1246
(dp5403
sg1248
(dp5404
sg1250
(dp5405
g718
g2866
ssg1252
(dp5406
sg1254
(dp5407
g84
g1937
ssg1256
(dp5408
g1100
g3353
ssg1258
(dp5409
g1222
g3523
ssg1260
(dp5410
g732
g2878
ssg1262
(dp5411
g1488
g3913
ssg1264
(dp5412
g440
g2470
ssg1266
(dp5413
sg1268
(dp5414
g66
g1875
ssg1270
(dp5415
g110
g1964
sS'_BOOK 52'
p5416
g3258
sS'_BOOK 17'
p5417
g2986
sg1654
g4191
sg1602
g4095
sS'_BOOK 61'
p5418
g3990
sS'_BOOK 64'
p5419
g3997
ssg1272
(dp5420
sg1274
(dp5421
g1724
g4278
sS'_CITY 121'
p5422
g4128
sS'_CITY 82'
p5423
g1889
sS'_CITY 90'
p5424
g2641
sS'_CITY 113'
p5425
g2022
sS'_CITY 76'
p5426
g4030
ssg1276
(dp5427
g1464
g3874
ssg1278
(dp5428
sg1280
(dp5429
g1276
g3585
ssg1282
(dp5430
g294
g2261
ssg1284
(dp5431
sg1286
(dp5432
g392
g2404
ssg1288
(dp5433
g352
g2364
ssg1290
(dp5434
g1144
g3408
sg720
g2868
sg950
g3133
ssg1292
(dp5435
g96
g1949
ssg1294
(dp5436
sg1296
(dp5437
g150
g2071
ssg1298
(dp5438
g272
g2236
ssg1300
(dp5439
sg1302
(dp5440
g338
g2349
ssg1304
(dp5441
g34
g1828
ssg1306
(dp5442
g1000
g3199
ssg1308
(dp5443
sg1310
(dp5444
g1004
g3203
ssg1312
(dp5445
sg1314
(dp5446
sg1316
(dp5447
g504
g2535
ssg1318
(dp5448
sg1320
(dp5449
g576
g2627
ssg1322
(dp5450
g1614
g4112
ssg1324
(dp5451
g1222
g3528
ssg1326
(dp5452
sg1328
(dp5453
g1156
g3420
ssg1330
(dp5454
sg1332
(dp5455
g968
g3147
ssg1334
(dp5456
sg1336
(dp5457
g1716
g4272
ssg1338
(dp5458
g238
g2179
ssg1340
(dp5459
g1796
g4374
ssg1342
(dp5460
g1700
g4246
ssg1344
(dp5461
g1530
g3951
ssg1346
(dp5462
g578
g2631
ssg1348
(dp5463
sg1350
(dp5464
g1502
g3927
ssg1352
(dp5465
g894
g3082
sS'_COUNTRY 35'
p5466
g2787
sg232
g2171
sg702
g2830
sS'_COUNTRY 113'
p5467
g2273
sS'_COUNTRY 76'
p5468
g3040
sS'_COUNTRY 90'
p5469
g3510
ssg1354
(dp5470
sg1356
(dp5471
sg1358
(dp5472
sg1360
(dp5473
g634
g2729
ssg1362
(dp5474
g1068
g3305
ssg1364
(dp5475
g314
g2322
ssg1366
(dp5476
g186
g2109
ssg1368
(dp5477
sg1370
(dp5478
sg1372
(dp5479
g742
g2893
ssg1374
(dp5480
g1450
g3852
ssg1376
(dp5481
g308
g2301
sg1244
g3550
sg820
g2964
ssg1378
(dp5482
g1194
g3465
sS'_COUNTRY 35'
p5483
g2799
sg592
g2681
sS'_COUNTRY 113'
p5484
g2258
sg128
g1985
sS'_COUNTRY 76'
p5485
g3049
sS'_COUNTRY 90'
p5486
g3522
ssg1380
(dp5487
g666
g2760
ssg1382
(dp5488
g898
g3088
ssg1384
(dp5489
sg1386
(dp5490
sg1388
(dp5491
g784
g2931
ssg1390
(dp5492
g388
g2399
ssg1392
(dp5493
sg1394
(dp5494
sg1396
(dp5495
g1744
g4298
sg466
g2492
sg1082
g3325
sg226
g2151
sg342
g2355
ssg1398
(dp5496
g1322
g3683
ssg1400
(dp5497
sg1402
(dp5498
g936
g3121
ssg1404
(dp5499
g1582
g4070
ssg1406
(dp5500
sg1408
(dp5501
sg1410
(dp5502
g338
g2345
ssg1412
(dp5503
g468
g2494
sg88
g1941
ssg1414
(dp5504
sg1416
(dp5505
g716
g2855
ssg1418
(dp5506
sg1420
(dp5507
g182
g2101
ssg1422
(dp5508
g1376
g3733
ssg1424
(dp5509
g150
g2072
ssg1426
(dp5510
sg1428
(dp5511
sg1430
(dp5512
sg1432
(dp5513
g1796
g4373
ssg1434
(dp5514
sg1436
(dp5515
S'_STATE 130'
p5516
g3804
sS'_STATE 82'
p5517
g3741
sS'_STATE 35'
p5518
g3648
ssg1438
(dp5519
S'_STATE 130'
p5520
g3808
sS'_STATE 82'
p5521
g3745
sS'_STATE 35'
p5522
g3652
ssg1440
(dp5523
g1030
g3225
ssg1442
(dp5524
g952
g3135
ssg1444
(dp5525
sg1446
(dp5526
g1610
g4108
ssg1448
(dp5527
S'_AUTHOR 123'
p5528
g4087
sS'_AUTHOR 21'
p5529
g3386
sS'_AUTHOR 117'
p5530
g2107
sS'_AUTHOR 52'
p5531
g3432
sS'_AUTHOR 69'
p5532
g3418
sS'_AUTHOR 74'
p5533
g3178
sS'_AUTHOR 62'
p5534
g3868
sS'_AUTHOR 70'
p5535
g2121
ssg1450
(dp5536
g644
g2738
ssg1452
(dp5537
g750
g2900
ssg1454
(dp5538
sg1456
(dp5539
S'_AUTHOR 123'
p5540
g4085
sS'_AUTHOR 21'
p5541
g3384
sS'_AUTHOR 117'
p5542
g2105
sS'_AUTHOR 52'
p5543
g3430
sS'_AUTHOR 69'
p5544
g3416
sS'_AUTHOR 74'
p5545
g3176
sS'_AUTHOR 62'
p5546
g3866
sS'_AUTHOR 70'
p5547
g2119
ssg1458
(dp5548
g24
g1820
ssg1460
(dp5549
sg1462
(dp5550
sg1464
(dp5551
sg1466
(dp5552
sg1468
(dp5553
g66
g1876
ssg1470
(dp5554
g1668
g4209
ssg1472
(dp5555
sg1474
(dp5556
g136
g2002
ssg1476
(dp5557
sg1478
(dp5558
sg1480
(dp5559
sg1482
(dp5560
g924
g3111
ssg1484
(dp5561
S'_STATE 130'
p5562
g3810
sS'_STATE 82'
p5563
g3747
sS'_STATE 35'
p5564
g3654
ssg1486
(dp5565
g392
g2405
ssg1488
(dp5566
g174
g2093
sg1428
g3834
sg766
g2917
sg358
g2371
sg1162
g3427
sg268
g2233
ssg1490
(dp5567
g1366
g3722
ssg1492
(dp5568
sg1494
(dp5569
sg1496
(dp5570
sg1498
(dp5571
g1788
g4350
ssg1500
(dp5572
g1000
g3197
ssg1502
(dp5573
g1240
g3546
ssg1504
(dp5574
g692
g2815
ssg1506
(dp5575
sg1508
(dp5576
sg1510
(dp5577
sg1512
(dp5578
sg1514
(dp5579
sg1516
(dp5580
g1030
g3224
ssg1518
(dp5581
g1646
g4184
ssg1520
(dp5582
g370
g2383
ssg1522
(dp5583
sg1524
(dp5584
g1210
g3481
ssg1526
(dp5585
g282
g2244
ssg1528
(dp5586
g1044
g3261
ssg1530
(dp5587
S'_RESEARCHER 27'
p5588
g2745
ssg1532
(dp5589
g444
g2473
sg618
g2712
ssg1534
(dp5590
g572
g2619
ssg1536
(dp5591
sg1538
(dp5592
sg1540
(dp5593
g1412
g3794
ssg1542
(dp5594
g1050
g3276
ssg1544
(dp5595
g1048
g3273
ssg1546
(dp5596
g512
g2542
ssg1548
(dp5597
sg1550
(dp5598
S'_BOOK 52'
p5599
g3248
sS'_BOOK 17'
p5600
g2976
sg620
g2714
sg776
g2925
sg836
g2993
sS'_BOOK 61'
p5601
g3981
sS'_BOOK 64'
p5602
g4001
ssg1552
(dp5603
g418
g2441
ssg1554
(dp5604
sg1556
(dp5605
g1112
g3375
ssg1558
(dp5606
g512
g2543
ssg1560
(dp5607
g430
g2452
ssg1562
(dp5608
sg1564
(dp5609
g1156
g3421
ssg1566
(dp5610
sg1568
(dp5611
g1426
g3832
sg1434
g3839
sg498
g2529
sg236
g2175
ssg1570
(dp5612
sg1572
(dp5613
sg1574
(dp5614
S'_ADDRESS 85'
p5615
g2860
sS'_ADDRESS 104'
p5616
g2169
sS'_ADDRESS 120'
p5617
g2011
sS'_ADDRESS 101'
p5618
g2195
sS'_ADDRESS 54'
p5619
g4366
sS'_ADDRESS 50'
p5620
g4382
ssg1576
(dp5621
g242
g2203
ssg1578
(dp5622
g66
g1877
ssg1580
(dp5623
sg1582
(dp5624
g826
g2970
sg624
g2718
ssg1584
(dp5625
sg1586
(dp5626
S'_CITY 82'
p5627
g1920
sS'_CITY 121'
p5628
g4167
sS'_CITY 76'
p5629
g4061
sS'_CITY 113'
p5630
g2053
sS'_CITY 90'
p5631
g2672
ssg1588
(dp5632
g340
g2353
ssg1590
(dp5633
sg1592
(dp5634
sg1594
(dp5635
g1166
g3434
ssg1596
(dp5636
sg1598
(dp5637
sg1600
(dp5638
sg1602
(dp5639
sg1604
(dp5640
g1204
g3476
ssg1606
(dp5641
S'hasAirport 25'
p5642
g4294
ssg1608
(dp5643
g1504
g3929
ssg1610
(dp5644
sg1612
(dp5645
sg1614
(dp5646
sg1616
(dp5647
g238
g2198
ssg1618
(dp5648
g572
g2620
ssg1620
(dp5649
g1100
g3354
ssg1622
(dp5650
g1568
g4015
ssg1624
(dp5651
sg1626
(dp5652
sg1628
(dp5653
g1752
g4308
sg298
g2293
sg516
g2547
sg458
g2484
sg594
g2683
sg364
g2377
sg1356
g3714
ssg1630
(dp5654
g248
g2208
ssg1632
(dp5655
sg1634
(dp5656
g754
g2906
ssg1636
(dp5657
S'_ACCOMMODATION 131'
p5658
g3637
sS'_ACCOMMODATION 58'
p5659
g1972
ssg1638
(dp5660
sg1640
(dp5661
sg1642
(dp5662
sg1644
(dp5663
sg1646
(dp5664
g1018
g3214
ssg1648
(dp5665
g1566
g4013
ssg1650
(dp5666
g1138
g3401
ssg1652
(dp5667
sg1654
(dp5668
sg1656
(dp5669
sg1658
(dp5670
g1218
g3492
ssg1660
(dp5671
g106
g1960
ssg1662
(dp5672
S'_COUNTRY 35'
p5673
g2776
sg1538
g3958
sS'_COUNTRY 113'
p5674
g2260
sS'_COUNTRY 76'
p5675
g3025
sg1674
g4220
sg160
g2083
sS'_COUNTRY 90'
p5676
g3500
ssg1664
(dp5677
sg1666
(dp5678
g1236
g3542
sg1032
g3227
sg1248
g3554
sg44
g1836
sg1728
g4282
sg1632
g4169
sg274
g2238
sg394
g2409
sg1358
g3716
ssg1668
(dp5679
g396
g2411
ssg1670
(dp5680
g880
g3066
ssg1672
(dp5681
g90
g1943
ssg1674
(dp5682
sg1676
(dp5683
g774
g2923
sg940
g3125
sg120
g1980
sg1394
g3767
sg98
g1952
sg1584
g4073
sg1460
g3870
ssg1678
(dp5684
sg1680
(dp5685
g348
g2360
ssg1682
(dp5686
sg1684
(dp5687
g730
g2876
ssg1686
(dp5688
g140
g2059
sg368
g2380
sS'_CITY 76'
p5689
g4057
sS'_CITY 82'
p5690
g1916
sS'_CITY 90'
p5691
g2668
sS'_CITY 113'
p5692
g2050
sS'_CITY 121'
p5693
g4148
ssg1688
(dp5694
sg1690
(dp5695
sg1692
(dp5696
S'hasAirport 14'
p5697
g2064
ssg1694
(dp5698
sg1696
(dp5699
sg1698
(dp5700
sg1700
(dp5701
g1782
g4345
sg680
g2806
ssg1702
(dp5702
g1290
g3600
ssg1704
(dp5703
g370
g2382
ssg1706
(dp5704
g1062
g3294
ssg1708
(dp5705
g666
g2761
ssg1710
(dp5706
sg1712
(dp5707
g578
g2630
ssg1714
(dp5708
g1396
g3769
ssg1716
(dp5709
g1532
g3953
sg684
g2809
sg1776
g4339
ssg1718
(dp5710
g1172
g3440
ssg1720
(dp5711
sg1722
(dp5712
g890
g3078
ssg1724
(dp5713
sg1726
(dp5714
sg1728
(dp5715
sg1730
(dp5716
sg1732
(dp5717
sg1734
(dp5718
sg1736
(dp5719
sg1738
(dp5720
g1796
g4392
ssg1740
(dp5721
sg1742
(dp5722
sg1744
(dp5723
sg1746
(dp5724
g238
g2178
ssg1748
(dp5725
g844
g3000
sg622
g2716
ssg1750
(dp5726
g1218
g3490
ssg1752
(dp5727
S'_COUNTY 45'
p5728
g4306
ssg1754
(dp5729
g1080
g3323
sg802
g2948
ssg1756
(dp5730
sg1758
(dp5731
g80
g1933
ssg1760
(dp5732
g314
g2321
ssg1762
(dp5733
g1252
g3560
ssg1764
(dp5734
g1754
g4313
ssg1766
(dp5735
sg1768
(dp5736
g104
g1958
sg770
g2920
ssg1770
(dp5737
g1586
g4075
ssg1772
(dp5738
sg1774
(dp5739
g678
g2774
ssg1776
(dp5740
g514
g2545
sS'_CITY 76'
p5741
g4032
sS'_CITY 82'
p5742
g1891
sg132
g1988
sS'_CITY 90'
p5743
g2643
sS'_CITY 113'
p5744
g2024
sS'_CITY 121'
p5745
g4152
ssg1778
(dp5746
g1680
g4226
ssg1780
(dp5747
S'_CITY 121'
p5748
g4154
sS'_CITY 82'
p5749
g1896
sg1220
g3495
sS'_CITY 90'
p5750
g2646
sS'_CITY 113'
p5751
g2030
sS'_CITY 76'
p5752
g4036
ssg1782
(dp5753
S'_CITY 82'
p5754
g1898
sS'_CITY 121'
p5755
g4156
sS'_CITY 76'
p5756
g4038
sS'_CITY 113'
p5757
g2032
sS'_CITY 90'
p5758
g2648
ssg1784
(dp5759
g1118
g3381
sS'_CITY 76'
p5760
g4040
sg258
g2223
sS'_CITY 82'
p5761
g1900
sS'_CITY 90'
p5762
g2650
sS'_CITY 113'
p5763
g2034
sS'_CITY 121'
p5764
g4158
ssg1786
(dp5765
g80
g1932
ssg1788
(dp5766
g714
g2840
ssg1790
(dp5767
g1796
g4388
ssg1792
(dp5768
g434
g2455
ssg1794
(dp5769
sg1796
(dp5770
g1498
g3922
ssg1798
(dp5771
g1250
g3557
ssg1800
(dp5772
g1100
g3356
sssS'adj'
p5773
g1805
sb.